ccopy_reg
_reconstructor
p0
(ceumi.server
EumiServer
p1
c__builtin__
object
p2
Ntp3
Rp4
(dp5
S'debug'
p6
I00
sS'router'
p7
(dp8
(I1915748352
I0
tp9
g0
(ceumi.server
PageHandler
p10
g2
Ntp11
Rp12
(dp13
S'data'
p14
(dp15
S'text'
p16
S"Go to /00000000/00000000\r\n\r\nRemove the space between 'text:' and /72300000/00000000 in the link below to see the error that happens when there is a loop in the text tree.\r\n\r\ntext: /72300000/00000000"
p17
sS'title'
p18
S'Whoops'
p19
ssS'response'
p20
S'<html><head><title>Whoops</title></head><body><h1><a href="/72300000/00000000">Whoops</a></h1><div><p>Go to <a href="/00000000/00000000">Eumirion</a></p><p>Remove the space between \'text:\' and <a href="/72300000/00000000">Whoops</a> in the link below to see the error that happens when there is a loop in the text tree.</p><p>text: <a href="/72300000/00000000">Whoops</a></p></div><hr><form action="/72300000/00000000" method="POST"><h4>Edit</h4><label for="title">Title:</label><input name="title" placeholder="You can use the editor below to write some text..." size="44" type="text" value="Whoops"><br><label for="text">Text:</label><br><textarea cols="58" name="text" placeholder="Write something..." rows="15">Go to /00000000/00000000\r\n\r\nRemove the space between \'text:\' and /72300000/00000000 in the link below to see the error that happens when there is a loop in the text tree.\r\n\r\ntext: /72300000/00000000</textarea><br><input name="fake_out_caching" type="hidden" value="2229852314"><input type="submit" value="post"></form></body></html>'
p21
sS'server'
p22
g4
sbs(I1511424
I2
tp23
g0
(g10
g2
Ntp24
Rp25
(dp26
g14
(dp27
S'text'
p28
S'li:/00171000/00000001\r\nli:/00171000/00000003\r\nli:/00171000/00000001'
p29
sS'title'
p30
S'A List'
p31
ssg20
S'<html><head><title>A List</title></head><body><h1><a href="/00171000/00000002">A List</a></h1><div><li>Bananas are delicious.</li>\r\n<li><p>Bananas are delicious.</p>\r\n<div>Bananas are delicious.</div>\r\nBananas are delicious.</li>\r\n<li>Bananas are delicious.</li></div><hr><form action="/00171000/00000002" method="POST"><h4>Edit</h4><label for="title">Title:</label><input name="title" placeholder="You can use the editor below to write some text..." size="44" type="text" value="A List"><br><label for="text">Text:</label><br><textarea cols="58" name="text" placeholder="Write something..." rows="15">li:/00171000/00000001\r\nli:/00171000/00000003\r\nli:/00171000/00000001</textarea><br><input name="fake_out_caching" type="hidden" value="46902788"><input type="submit" value="post"></form></body></html>'
p32
sg22
g4
sbs(I16843009
I57
tp33
g0
(g10
g2
Ntp34
Rp35
(dp36
g14
(dp37
S'text'
p38
S'4 6 d ;joy:/01010101/00000039text:/01010102/00000002'
p39
sS'title'
p40
S'4d6'
p41
sS'joy'
p42
(I4
(I6
(g0
(ceumi.joy.functions
FunctionWrapper
p43
g2
Ntp44
Rp45
(dp46
S'name'
p47
S'd'
p48
sS'f'
p49
ceumi.joy.morewords
d
p50
sb(ttp51
tp52
tp53
ssg20
S'<html><head><title>4d6</title><style>body { background:#cfc; }</style></head><body><h1><a href="/01010101/00000039">4d6</a></h1><div>4 6 d ;<form action="/01010101/00000039" class="command" method="POST"><input name="fake_out_caching" type="hidden" value="676163095"><input name="command" type="hidden" value="/01010101/00000035"><input type="submit" value="clear"></form></div><hr><form action="/01010101/00000039" method="POST"><h4>Edit</h4><label for="title">Title:</label><input name="title" placeholder="You can use the editor below to write some text..." size="44" type="text" value="4d6"><br><label for="text">Text:</label><br><textarea cols="58" name="text" placeholder="Write something..." rows="15">4 6 d ;joy:/01010101/00000039text:/01010102/00000002</textarea><br><input name="fake_out_caching" type="hidden" value="931766936"><input type="submit" value="post"></form></body></html>'
p54
sg22
g4
sbs(I1911
I4369
tp55
g0
(g10
g2
Ntp56
Rp57
(dp58
g14
(dp59
S'text'
p60
S'div:/00000777/0000000a\r\ndiv:/00000777/0000000b\r\ncssclass:/12345678/12395682\r\n'
p61
sS'title'
p62
S'ab'
p63
ssg20
S'<html><head><title>ab</title></head><body><h1><a href="/00000777/00001111">ab</a></h1><div class="lof"><div class="lof">A\r\n\r\n</div>\r\n<div class="lof">B\r\n\r\n</div>\r\n\r\n</div><hr><form action="/00000777/00001111" method="POST"><h4>Edit</h4><label for="title">Title:</label><input name="title" placeholder="You can use the editor below to write some text..." size="44" type="text" value="ab"><br><label for="text">Text:</label><br><textarea cols="58" name="text" placeholder="Write something..." rows="15">div:/00000777/0000000a\r\ndiv:/00000777/0000000b\r\ncssclass:/12345678/12395682\r\n</textarea><br><input name="fake_out_caching" type="hidden" value="138523134"><input type="submit" value="post"></form></body></html>'
p64
sg22
g4
sbs(I1911
I11
tp65
g0
(g10
g2
Ntp66
Rp67
(dp68
g14
(dp69
g60
S'B\r\ncssclass:/12345678/12395682\r\n'
p70
sg62
S'B'
p71
ssg20
S'<html><head><title>B</title></head><body><h1><a href="/00000777/0000000b">B</a></h1><div class="lof">B\r\n\r\n</div><hr><form action="/00000777/0000000b" method="POST"><h4>Edit</h4><label for="title">Title:</label><input name="title" placeholder="You can use the editor below to write some text..." size="44" type="text" value="B"><br><label for="text">Text:</label><br><textarea cols="58" name="text" placeholder="Write something..." rows="15">B\r\ncssclass:/12345678/12395682\r\n</textarea><br><input name="fake_out_caching" type="hidden" value="119155415"><input type="submit" value="post"></form></body></html>'
p72
sg22
g4
sbs(I305419896
I305747589
tp73
g0
(g10
g2
Ntp74
Rp75
(dp76
g14
(dp77
g60
S'.lof {\r\n  border-top: 2px solid black;\r\n  border-right: 2px solid black;\r\n  padding: 0.25em;\r\n  margin: 0.25em;\r\n  float: left;\r\n}\r\n/*\r\ncss:/12345678/12395681\r\ncss:/12345678/12395685\r\ncssclass:/12345678/12395682\r\n*/'
p78
sg62
S'Lof'
p79
ssg20
S'<html><head><title>Lof</title><style>p {\r\n  margin: 0px;\r\n}\r\n \r\ndiv { background: #ffa; }\r\n\r\n/*css:/12345678/12395681*/</style><style>.lof {\r\n  border-top: 2px solid black;\r\n  border-right: 2px solid black;\r\n  padding: 0.25em;\r\n  margin: 0.25em;\r\n  float: left;\r\n}\r\n/*\r\ncss:/12345678/12395681\r\ncss:/12345678/12395685\r\ncssclass:/12345678/12395682\r\n*/</style></head><body><h1><a href="/12345678/12395685">Lof</a></h1><div class="lof">.lof {\r\n  border-top: 2px solid black;\r\n  border-right: 2px solid black;\r\n  padding: 0.25em;\r\n  margin: 0.25em;\r\n  float: left;\r\n}\r\n/*\r\n\r\n\r\n\r\n*/</div><hr><form action="/12345678/12395685" method="POST"><h4>Edit</h4><label for="title">Title:</label><input name="title" placeholder="You can use the editor below to write some text..." size="44" type="text" value="Lof"><br><label for="text">Text:</label><br><textarea cols="58" name="text" placeholder="Write something..." rows="15">.lof {\r\n  border-top: 2px solid black;\r\n  border-right: 2px solid black;\r\n  padding: 0.25em;\r\n  margin: 0.25em;\r\n  float: left;\r\n}\r\n/*\r\ncss:/12345678/12395681\r\ncss:/12345678/12395685\r\ncssclass:/12345678/12395682\r\n*/</textarea><br><input name="fake_out_caching" type="hidden" value="1518815399"><input type="submit" value="post"></form></body></html>'
p80
sg22
g4
sbs(I305419896
I305419896
tp81
g0
(g10
g2
Ntp82
Rp83
(dp84
g14
(dp85
S'text'
p86
S'Very large and slightly awkward.\r\ncss:/12345678/12395678\r\n\r\n\r\n/00000000/00000000\r\n\r\ndoor:/00000000/00000020\r\n\r\ncss:/12345678/12395679'
p87
sS'title'
p88
S'Brobignagian'
p89
ssg20
S'<html><head><title>Brobignagian</title><style>@import url(http://fonts.googleapis.com/css?family=EB+Garamond);\r\n\r\nbody {\r\n  background: black;\r\n  color: #00ff00;\r\n  font-family: \'EB Garamond\', serif;\r\n  font-size: 133%;\r\n}\r\n\r\ndiv {\r\n  border: 0.1em solid;\r\n  border-radius: 3em;\r\n  padding: 1.25em 2.25em 1.25em 2.25em;\r\n}\r\n\r\n/*css:/12345678/12395681*/</style><style>.door-link { \r\n  border: 1px solid black;\r\n  background: tan;\r\n  padding: 0.5em;\r\n}\r\n\r\n.door-link:hover {\r\n  border: 1px solid orange;\r\n  background: black;\r\n  color: tan;\r\n  padding: 0.75em;\r\n}\r\n/*css:/12345678/12395681*/</style></head><body><h1><a href="/12345678/12345678">Brobignagian</a></h1><div><p>Very large and slightly awkward.\r\n</p><p>\r\n<a href="/00000000/00000000">Eumirion</a></p><p><a class="door-link" href="/00000000/00000020">[This Is The Outer Limits]</a></p><p></p></div><hr><form action="/12345678/12345678" method="POST"><h4>Edit</h4><label for="title">Title:</label><input name="title" placeholder="You can use the editor below to write some text..." size="44" type="text" value="Brobignagian"><br><label for="text">Text:</label><br><textarea cols="58" name="text" placeholder="Write something..." rows="15">Very large and slightly awkward.\r\ncss:/12345678/12395678\r\n\r\n\r\n/00000000/00000000\r\n\r\ndoor:/00000000/00000020\r\n\r\ncss:/12345678/12395679</textarea><br><input name="fake_out_caching" type="hidden" value="3594715384"><input type="submit" value="post"></form></body></html>'
p90
sg22
g4
sbs(I305419896
I305747585
tp91
g0
(g10
g2
Ntp92
Rp93
(dp94
g14
(dp95
S'text'
p96
S'p {\r\n  margin: 0px;\r\n}\r\n \r\ndiv { background: #ffa; }\r\n\r\n/*css:/12345678/12395681*/'
p97
sS'title'
p98
S'CSS CSS'
p99
ssg20
S'<html><head><title>CSS CSS</title><style>p {\r\n  margin: 0px;\r\n}\r\n \r\ndiv { background: #ffa; }\r\n\r\n/*css:/12345678/12395681*/</style></head><body><h1><a href="/12345678/12395681">CSS CSS</a></h1><div><p>p {</p><p>  margin: 0px;</p><p>}</p><p> </p><p>div { background: #ffa; }</p><p></p><p>/**/</p></div><hr><form action="/12345678/12395681" method="POST"><h4>Edit</h4><label for="title">Title:</label><input name="title" placeholder="No Title" size="44" type="text" value="CSS CSS"><br><label for="text">Text:</label><br><textarea cols="58" name="text" placeholder="Write something..." rows="15">p {\r\n  margin: 0px;\r\n}\r\n \r\ndiv { background: #ffa; }\r\n\r\n/*css:/12345678/12395681*/</textarea><br><input name="fake_out_caching" type="hidden" value="36988113"><input type="submit" value="post"></form></body></html>'
p100
sg22
g4
sbs(I1511424
I0
tp101
g0
(g10
g2
Ntp102
Rp103
(dp104
g14
(dp105
S'text'
p106
S'div:/00171000/00000001\r\np:/00171000/00000001\r\nol:/00171000/00000002\r\ntext:/00171000/00000001\r\ntext:/00171000/00000001\r\np:/00171000/00000001\r\nul:/00171000/00000002\r\ndiv:/00171000/00000001\r\ncss:/12345678/12395678'
p107
sS'title'
p108
S'Try the new stuff'
p109
ssg20
S'<html><head><title>Try the new stuff</title><style>@import url(http://fonts.googleapis.com/css?family=EB+Garamond);\r\n\r\nbody {\r\n  background: black;\r\n  color: #00ff00;\r\n  font-family: \'EB Garamond\', serif;\r\n  font-size: 133%;\r\n}\r\n\r\ndiv {\r\n  border: 0.1em solid;\r\n  border-radius: 3em;\r\n  padding: 1.25em 2.25em 1.25em 2.25em;\r\n}\r\n\r\n/*css:/12345678/12395681*/</style></head><body><h1><a href="/00171000/00000000">Try the new stuff</a></h1><div><div><p>Bananas are delicious.</p></div><p><p>Bananas are delicious.</p></p><ol><li><p>Bananas are delicious.</p></li><li><p><p>Bananas are delicious.</p></p><div><p>Bananas are delicious.</p></div><p>Bananas are delicious.</p></li><li><p>Bananas are delicious.</p></li></ol><p>Bananas are delicious.</p><p>Bananas are delicious.</p><p><p>Bananas are delicious.</p></p><ul><li><p>Bananas are delicious.</p></li><li><p><p>Bananas are delicious.</p></p><div><p>Bananas are delicious.</p></div><p>Bananas are delicious.</p></li><li><p>Bananas are delicious.</p></li></ul><div><p>Bananas are delicious.</p></div></div><hr><form action="/00171000/00000000" method="POST"><h4>Edit</h4><label for="title">Title:</label><input name="title" placeholder="You can use the editor below to write some text..." size="44" type="text" value="Try the new stuff"><br><label for="text">Text:</label><br><textarea cols="58" name="text" placeholder="Write something..." rows="15">div:/00171000/00000001\r\np:/00171000/00000001\r\nol:/00171000/00000002\r\ntext:/00171000/00000001\r\ntext:/00171000/00000001\r\np:/00171000/00000001\r\nul:/00171000/00000002\r\ndiv:/00171000/00000001\r\ncss:/12345678/12395678</textarea><br><input name="fake_out_caching" type="hidden" value="2480090312"><input type="submit" value="post"></form></body></html>'
p110
sg22
g4
sbs(I305419896
I16843009
tp111
g0
(g10
g2
Ntp112
Rp113
(dp114
g14
(dp115
S'text'
p116
S'body { background:#cfc; }\r\n'
p117
sS'title'
p118
S'Joy Css'
p119
ssg20
S'<html><head><title>Joy Css</title></head><body><h1><a href="/12345678/01010101">Joy Css</a></h1><div>body { background:#cfc; }\r\n</div><hr><form action="/12345678/01010101" method="POST"><h4>Edit</h4><label for="title">Title:</label><input name="title" placeholder="You can use the editor below to write some text..." size="44" type="text" value="Joy Css"><br><label for="text">Text:</label><br><textarea cols="58" name="text" placeholder="Write something..." rows="15">body { background:#cfc; }\r\n</textarea><br><input name="fake_out_caching" type="hidden" value="3319310131"><input type="submit" value="post"></form></body></html>'
p120
sg22
g4
sbs(I0
I3
tp121
g0
(g10
g2
Ntp122
Rp123
(dp124
g14
(dp125
S'text'
p126
S'index:/00000000/cafebabe'
p127
sS'title'
p128
S'Is This An Index?'
p129
ssg20
S'<html><head><title>Is This An Index?</title></head><body><h1><a href="/00000000/00000003">Is This An Index?</a></h1><div><ol><li><a href="/00000000/00000000">Eumirion</a><ol><li><a href="/00000000/00000003">Is This An Index?</a></li><li><a href="/00000000/00000019">Excelsior</a></li><li><a href="/00000000/00000020">This Is The Outer Limits</a></li><li><a href="/00000000/00000021">Thronestar</a></li><li><a href="/00000000/00080020">Control Panel Testing</a></li><li><a href="/00000000/cafebab0">Demo</a></li><li><a href="/00000000/cafebabe">warrior dark elf</a></li></ol></li><li><a href="/00000777/00000000">Laws of Form</a><ol><li><a href="/00000777/0000000a">A</a></li><li><a href="/00000777/0000000b">B</a></li><li><a href="/00000777/00001111">ab</a></li><li><a href="/00000777/00001112">((a)(b))</a></li></ol></li><li><a href="/00171000/00000000">Try the new stuff</a><ol><li><a href="/00171000/00000001">Bananas</a></li><li><a href="/00171000/00000002">A List</a></li><li><a href="/00171000/00000003">Some other junk.</a></li><li><a href="/00171000/00000004">Bananas with class!</a></li><li><a href="/00171000/00000005">See Animation in Action</a></li></ol></li><li><a href="/01010101/00000000">Joy Code</a><ol><li><a href="/01010101/00000001">01</a></li><li><a href="/01010101/00000033">times</a></li><li><a href="/01010101/00000035">clear</a></li><li><a href="/01010101/00000037">first</a></li><li><a href="/01010101/00000038">enstacken</a></li><li><a href="/01010101/00000039">4d6</a></li><li><a href="/01010101/00000040">Roll four six-siders.</a></li><li><a href="/01010101/00000041">Enstacken Pulse Title</a></li><li><a href="/01010101/00000042">Remove lowest and sum.</a></li><li><a href="/01010101/00000043">pop</a></li></ol></li><li><a href="/01010102/00000000">jump to /01010102/00000000</a><ol><li><a href="/01010102/00000002">Template for commands.</a></li></ol></li><li><a href="/12344678/00000000">And then...</a><ol></ol></li><li><a href="/12345678/00000000">Csses</a><ol><li><a href="/12345678/00000023">command form CSS</a></li><li><a href="/12345678/01010101">Joy Css</a></li><li><a href="/12345678/12345678">Brobignagian</a></li><li><a href="/12345678/12395678">Some CSS</a></li><li><a href="/12345678/12395679">Door Css</a></li><li><a href="/12345678/12395680">jump to /12345678/12395680</a></li><li><a href="/12345678/12395681">CSS CSS</a></li><li><a href="/12345678/12395682">A CSS class</a></li><li><a href="/12345678/12395683">Making text slide across the browser window</a></li><li><a href="/12345678/12395684">Title slow pulse</a></li><li><a href="/12345678/12395685">Lof</a></li></ol></li><li><a href="/72300000/00000000">Whoops</a><ol></ol></li><li><a href="/77700000/00000000">Parametric Creation Of Content, Including Planets</a><ol></ol></li><li><a href="/88880000/00000000">Spaceships</a><ol><li><a href="/88880000/00000001">The TARDIS</a></li></ol></li></ol></div><hr><form action="/00000000/00000003" method="POST"><h4>Edit</h4><label for="title">Title:</label><input name="title" placeholder="You can use the editor below to write some text..." size="44" type="text" value="Is This An Index?"><br><label for="text">Text:</label><br><textarea cols="58" name="text" placeholder="Write something..." rows="15">index:/00000000/cafebabe</textarea><br><input name="fake_out_caching" type="hidden" value="576991356"><input type="submit" value="post"></form></body></html>'
p130
sg22
g4
sbs(I16843009
I64
tp131
g0
(g10
g2
Ntp132
Rp133
(dp134
g14
(dp135
S'text'
p136
S'1 6 d 1 6 d 1 6 d 1 6 d [] cons cons cons cons\r\n;\r\n\r\nResults in a list [1d6 1d6 1d6 1d6]\r\n\r\nThen you can remove the least of the four and sum the remaining three to get a score for a D&D stat, "Roll 4d6 and discard the lowest roll."\r\n\r\n[] [[1 6 d] 4 times] infra\r\n\r\n[1 6 d] 4 times [] [cons] 4 times\r\n\r\ndup min remove sum\r\n\r\njoy:/01010101/00000040text:/01010102/00000002'
p137
sS'title'
p138
S'Roll four six-siders.'
p139
sS'joy'
p140
(I1
(I6
(g0
(g43
g2
Ntp141
Rp142
(dp143
g47
S'd'
p144
sg49
g50
sb(I1
(I6
(g142
(I1
(I6
(g142
(I1
(I6
(g142
((t(g0
(g43
g2
Ntp145
Rp146
(dp147
g47
S'cons'
p148
sg49
ceumi.joy.library
cons
p149
sb(g146
(g146
(g146
(ttp150
tp151
tp152
tp153
tp154
tp155
tp156
tp157
tp158
tp159
tp160
tp161
tp162
tp163
tp164
tp165
tp166
ssg20
S'<html><head><title>Roll four six-siders.</title><style>body { background:#cfc; }\r\nbody:first-child {\r\n  font-size:120%;\r\n}</style></head><body><h1><a href="/01010101/00000040">Roll four six-siders.</a></h1><div><p>1 6 d 1 6 d 1 6 d 1 6 d [] cons cons cons cons\r\n;</p><p>Results in a list [1d6 1d6 1d6 1d6]</p><p>Then you can remove the least of the four and sum the remaining three to get a score for a D&amp;D stat, "Roll 4d6 and discard the lowest roll."</p><p>[] [[1 6 d] 4 times] infra</p><p>[1 6 d] 4 times [] [cons] 4 times</p><p>dup min remove sum</p><p><form action="/01010101/00000040" class="command" method="POST"><input name="fake_out_caching" type="hidden" value="387836291"><input name="command" type="hidden" value="/01010101/00000035"><input type="submit" value="clear"></form></p></div><hr><form action="/01010101/00000040" method="POST"><h4>Edit</h4><label for="title">Title:</label><input name="title" placeholder="You can use the editor below to write some text..." size="44" type="text" value="Roll four six-siders."><br><label for="text">Text:</label><br><textarea cols="58" name="text" placeholder="Write something..." rows="15">1 6 d 1 6 d 1 6 d 1 6 d [] cons cons cons cons\r\n;\r\n\r\nResults in a list [1d6 1d6 1d6 1d6]\r\n\r\nThen you can remove the least of the four and sum the remaining three to get a score for a D&amp;D stat, "Roll 4d6 and discard the lowest roll."\r\n\r\n[] [[1 6 d] 4 times] infra\r\n\r\n[1 6 d] 4 times [] [cons] 4 times\r\n\r\ndup min remove sum\r\n\r\njoy:/01010101/00000040text:/01010102/00000002</textarea><br><input name="fake_out_caching" type="hidden" value="2439869558"><input type="submit" value="post"></form></body></html>'
p167
sg22
g4
sbs(I16843009
I56
tp168
g0
(g10
g2
Ntp169
Rp170
(dp171
g14
(dp172
S'text'
p173
S'enstacken ;text:/01010102/00000002'
p174
sS'title'
p175
S'enstacken'
p176
sS'joy'
p177
(g0
(ceumi.joy.definitions
DefinitionWrapper
p178
g2
Ntp179
Rp180
(dp181
S'body'
p182
(g0
(g43
g2
Ntp183
Rp184
(dp185
g47
S'stack'
p186
sg49
ceumi.joy.library
stack_
p187
sb((g0
(g43
g2
Ntp188
Rp189
(dp190
g47
S'clear'
p191
sg49
ceumi.joy.library
clear
p192
sb(ttp193
(g0
(g43
g2
Ntp194
Rp195
(dp196
g47
S'dip'
p197
sg49
ceumi.joy.combinators
dip
p198
sb(ttp199
tp200
tp201
sS'__name__'
p202
S'enstacken'
p203
sg47
g203
sS'__doc__'
p204
S'stack [clear] dip'
p205
sb(ttp206
ssg20
S'<html><head><title>enstacken</title><style>body { background:#cfc; }</style></head><body><h1><a href="/01010101/00000038">enstacken</a></h1><div><p>enstacken ;<p><form action="/01010101/00000038" class="command" method="POST"><input name="fake_out_caching" type="hidden" value="782127247"><input name="command" type="hidden" value="/01010101/00000035"><input type="submit" value="clear"></form></p></p></div><hr><form action="/01010101/00000038" method="POST"><h4>Edit</h4><label for="title">Title:</label><input name="title" placeholder="You can use the editor below to write some text..." size="44" type="text" value="enstacken"><br><label for="text">Text:</label><br><textarea cols="58" name="text" placeholder="Write something..." rows="15">enstacken ;text:/01010102/00000002</textarea><br><input name="fake_out_caching" type="hidden" value="2737218329"><input type="submit" value="post"></form></body></html>'
p207
sg22
g4
sbs(I0
I524320
tp208
g0
(g10
g2
Ntp209
Rp210
(dp211
g14
(dp212
S'text'
p213
S'door:/00000000/00000000\r\ncommand:/01010101/00000001command:/01010101/00000035command:/01010101/00000037command:/01010101/00000038command:/01010101/00000039command:/01010101/00000040\r\nstack:/00000000/00080020\r\nstackinto:/00000000/00080020\r\ncss:/12345678/00000023'
p214
sS'joy'
p215
(tsS'stack'
p216
(tsS'title'
p217
S'Control Panel Testing'
p218
ssg20
S'<html><head><title>Control Panel Testing</title><style>form.command { display: inline; padding: 0.5em; }</style></head><body><h1><a href="/00000000/00080020">Control Panel Testing</a></h1><div><a class="door-link" href="/00000000/00000000">[Eumirion]</a>\r\n<form action="/00000000/00080020" class="command" method="POST"><input name="fake_out_caching" type="hidden" value="2773974339"><input name="command" type="hidden" value="/01010101/00000001"><input type="submit" value="01"></form><form action="/00000000/00080020" class="command" method="POST"><input name="fake_out_caching" type="hidden" value="1726278365"><input name="command" type="hidden" value="/01010101/00000035"><input type="submit" value="clear"></form><form action="/00000000/00080020" class="command" method="POST"><input name="fake_out_caching" type="hidden" value="1419555521"><input name="command" type="hidden" value="/01010101/00000037"><input type="submit" value="first"></form><form action="/00000000/00080020" class="command" method="POST"><input name="fake_out_caching" type="hidden" value="3496990205"><input name="command" type="hidden" value="/01010101/00000038"><input type="submit" value="enstacken"></form><form action="/00000000/00080020" class="command" method="POST"><input name="fake_out_caching" type="hidden" value="1466260261"><input name="command" type="hidden" value="/01010101/00000039"><input type="submit" value="4d6"></form><form action="/00000000/00080020" class="command" method="POST"><input name="fake_out_caching" type="hidden" value="660983848"><input name="command" type="hidden" value="/01010101/00000040"><input type="submit" value="Roll four six-siders."></form>\r\n<ol></ol>\r\n\r\n</div><hr><form action="/00000000/00080020" method="POST"><h4>Edit</h4><label for="title">Title:</label><input name="title" placeholder="You can use the editor below to write some text..." size="44" type="text" value="Control Panel Testing"><br><label for="text">Text:</label><br><textarea cols="58" name="text" placeholder="Write something..." rows="15">door:/00000000/00000000\r\ncommand:/01010101/00000001command:/01010101/00000035command:/01010101/00000037command:/01010101/00000038command:/01010101/00000039command:/01010101/00000040\r\nstack:/00000000/00080020\r\nstackinto:/00000000/00080020\r\ncss:/12345678/00000023</textarea><br><input name="fake_out_caching" type="hidden" value="1576293613"><input type="submit" value="post"></form></body></html>'
p219
sg22
g4
sbs(I1911
I10
tp220
g0
(g10
g2
Ntp221
Rp222
(dp223
g14
(dp224
g60
S'A\r\ncssclass:/12345678/12395682\r\n'
p225
sg62
S'A'
p226
ssg20
S'<html><head><title>A</title></head><body><h1><a href="/00000777/0000000a">A</a></h1><div class="lof">A\r\n\r\n</div><hr><form action="/00000777/0000000a" method="POST"><h4>Edit</h4><label for="title">Title:</label><input name="title" placeholder="You can use the editor below to write some text..." size="44" type="text" value="A"><br><label for="text">Text:</label><br><textarea cols="58" name="text" placeholder="Write something..." rows="15">A\r\ncssclass:/12345678/12395682\r\n</textarea><br><input name="fake_out_caching" type="hidden" value="1021511231"><input type="submit" value="post"></form></body></html>'
p227
sg22
g4
sbs(I16843009
I55
tp228
g0
(g10
g2
Ntp229
Rp230
(dp231
g14
(dp232
S'text'
p233
S'first ;text:/01010102/00000002'
p234
sS'title'
p235
S'first'
p236
sS'joy'
p237
(g0
(g178
g2
Ntp238
Rp239
(dp240
g182
(g0
(g43
g2
Ntp241
Rp242
(dp243
g47
S'uncons'
p244
sg49
ceumi.joy.library
uncons
p245
sb(g0
(g43
g2
Ntp246
Rp247
(dp248
g47
S'pop'
p249
sg49
ceumi.joy.library
pop
p250
sb(ttp251
tp252
sg202
S'first'
p253
sg47
g253
sg204
S'# This is ALSO one of the most basic commands.\n# It provides the first item of a sequence...\n'
p254
sb(ttp255
ssg20
S'<html><head><title>first</title><style>body { background:#cfc; }</style></head><body><h1><a href="/01010101/00000037">first</a></h1><div><p>first ;<p><form action="/01010101/00000037" class="command" method="POST"><input name="fake_out_caching" type="hidden" value="2656798380"><input name="command" type="hidden" value="/01010101/00000035"><input type="submit" value="clear"></form></p></p></div><hr><form action="/01010101/00000037" method="POST"><h4>Edit</h4><label for="title">Title:</label><input name="title" placeholder="You can use the editor below to write some text..." size="44" type="text" value="first"><br><label for="text">Text:</label><br><textarea cols="58" name="text" placeholder="Write something..." rows="15">first ;text:/01010102/00000002</textarea><br><input name="fake_out_caching" type="hidden" value="2758267846"><input type="submit" value="post"></form></body></html>'
p256
sg22
g4
sbs(I0
I0
tp257
g0
(g10
g2
Ntp258
Rp259
(dp260
g14
(dp261
S'text'
p262
S'Home\r\nClick here to parametrically create a solar system. /77700000/00000000\r\n\r\n has:/00000000/00000019 inset:/00000000/00000021 /00000000/00000003\r\n\r\ndoor:/00000000/00000020\r\n\r\ncss:/12345678/12395679\r\n'
p263
sS'title'
p264
S'Eumirion'
p265
ssg20
S'<html><head><title>Eumirion</title><style>.door-link { \r\n  border: 1px solid black;\r\n  background: tan;\r\n  padding: 0.5em;\r\n}\r\n\r\n.door-link:hover {\r\n  border: 1px solid orange;\r\n  background: black;\r\n  color: tan;\r\n  padding: 0.75em;\r\n}\r\n/*css:/12345678/12395681*/</style></head><body><h1><a href="/00000000/00000000">Eumirion</a></h1><div><p>Home\r\nClick here to parametrically create a solar system. <a href="/77700000/00000000">Parametric Creation Of Content, Including Planets</a></p><p> unknown action "has:"<a href="/00000000/00000019">Excelsior</a> unknown action "inset:"<a href="/00000000/00000021">Thronestar</a> <a href="/00000000/00000003">Is This An Index?</a></p><p><a class="door-link" href="/00000000/00000020">[This Is The Outer Limits]</a></p><p>\r\n</p></div><hr><form action="/00000000/00000000" method="POST"><h4>Edit</h4><label for="title">Title:</label><input name="title" placeholder="You can use the editor below to write some text..." size="44" type="text" value="Eumirion"><br><label for="text">Text:</label><br><textarea cols="58" name="text" placeholder="Write something..." rows="15">Home\r\nClick here to parametrically create a solar system. /77700000/00000000\r\n\r\n has:/00000000/00000019 inset:/00000000/00000021 /00000000/00000003\r\n\r\ndoor:/00000000/00000020\r\n\r\ncss:/12345678/12395679\r\n</textarea><br><input name="fake_out_caching" type="hidden" value="2373786348"><input type="submit" value="post"></form></body></html>'
p266
sg22
g4
sbs(I305419896
I305747577
tp267
g0
(g10
g2
Ntp268
Rp269
(dp270
g14
(dp271
S'text'
p272
S'.door-link { \r\n  border: 1px solid black;\r\n  background: tan;\r\n  padding: 0.5em;\r\n}\r\n\r\n.door-link:hover {\r\n  border: 1px solid orange;\r\n  background: black;\r\n  color: tan;\r\n  padding: 0.75em;\r\n}\r\n/*css:/12345678/12395681*/'
p273
sS'title'
p274
S'Door Css'
p275
ssg20
S'<html><head><title>Door Css</title><style>p {\r\n  margin: 0px;\r\n}\r\n \r\ndiv { background: #ffa; }\r\n\r\n/*css:/12345678/12395681*/</style></head><body><h1><a href="/12345678/12395679">Door Css</a></h1><div><p>.door-link { \r\n  border: 1px solid black;\r\n  background: tan;\r\n  padding: 0.5em;\r\n}</p><p>.door-link:hover {\r\n  border: 1px solid orange;\r\n  background: black;\r\n  color: tan;\r\n  padding: 0.75em;\r\n}\r\n/**/</p></div><hr><form action="/12345678/12395679" method="POST"><h4>Edit</h4><label for="title">Title:</label><input name="title" placeholder="You can use the editor below to write some text..." size="44" type="text" value="Door Css"><br><label for="text">Text:</label><br><textarea cols="58" name="text" placeholder="Write something..." rows="15">.door-link { \r\n  border: 1px solid black;\r\n  background: tan;\r\n  padding: 0.5em;\r\n}\r\n\r\n.door-link:hover {\r\n  border: 1px solid orange;\r\n  background: black;\r\n  color: tan;\r\n  padding: 0.75em;\r\n}\r\n/*css:/12345678/12395681*/</textarea><br><input name="fake_out_caching" type="hidden" value="652573242"><input type="submit" value="post"></form></body></html>'
p276
sg22
g4
sbs(I16843009
I51
tp277
g0
(g10
g2
Ntp278
Rp279
(dp280
g14
(dp281
g116
S'[-- dip] cons [swap] infra [0 >] swap while pop\r\n\r\nDo something n times.\r\n\r\ncss:/12345678/01010101'
p282
sg118
S'times'
p283
ssg20
S'<html><head><title>times</title><style>body { background:#cfc; }</style></head><body><h1><a href="/01010101/00000033">times</a></h1><div><p>[-- dip] cons [swap] infra [0 &gt;] swap while pop</p><p></p><p>Do something n times.</p><p></p><p></p></div><hr><form action="/01010101/00000033" method="POST"><h4>Edit</h4><label for="title">Title:</label><input name="title" placeholder="No Title" size="44" type="text" value="times"><br><label for="text">Text:</label><br><textarea cols="58" name="text" placeholder="Write something..." rows="15">[-- dip] cons [swap] infra [0 &gt;] swap while pop\r\n\r\nDo something n times.\r\n\r\ncss:/12345678/01010101</textarea><br><input name="fake_out_caching" type="hidden" value="471531137"><input type="submit" value="post"></form></body></html>'
p284
sg22
g4
sbs(I305419896
I305747586
tp285
g0
(g10
g2
Ntp286
Rp287
(dp288
g14
(dp289
S'text'
p290
S'lof'
p291
sS'title'
p292
S'A CSS class'
p293
ssg20
S'<html><head><title>A CSS class</title></head><body><h1><a href="/12345678/12395682">A CSS class</a></h1><div>lof</div><hr><form action="/12345678/12395682" method="POST"><h4>Edit</h4><label for="title">Title:</label><input name="title" placeholder="You can use the editor below to write some text..." size="44" type="text" value="A CSS class"><br><label for="text">Text:</label><br><textarea cols="58" name="text" placeholder="Write something..." rows="15">lof</textarea><br><input name="fake_out_caching" type="hidden" value="4228415860"><input type="submit" value="post"></form></body></html>'
p294
sg22
g4
sbs(I1511424
I4
tp295
g0
(g10
g2
Ntp296
Rp297
(dp298
g14
(dp299
S'text'
p300
S'cssclass:/12345678/12395682\r\ntext:/00171000/00000001'
p301
sS'title'
p302
S'Bananas with class!'
p303
ssg20
S'<html><head><title>Bananas with class!</title></head><body><h1><a href="/00171000/00000004">Bananas with class!</a></h1><div class="a-css-class">\r\nBananas are delicious.\r\n</div><hr><form action="/00171000/00000004" method="POST"><h4>Edit</h4><label for="title">Title:</label><input name="title" placeholder="You can use the editor below to write some text..." size="44" type="text" value="Bananas with class!"><br><label for="text">Text:</label><br><textarea cols="58" name="text" placeholder="Write something..." rows="15">cssclass:/12345678/12395682\r\ntext:/00171000/00000001</textarea><br><input name="fake_out_caching" type="hidden" value="3929778357"><input type="submit" value="post"></form></body></html>'
p304
sg22
g4
sbs(I0
I3405691582
tp305
g0
(g10
g2
Ntp306
Rp307
(dp308
g14
(dp309
S'text'
p310
S'very young red dragon grab helpless goblin as guide through the human world'
p311
sS'title'
p312
S'warrior dark elf'
p313
ssg20
S'<html><head><title>warrior dark elf</title></head><body><h1><a href="/00000000/cafebabe">warrior dark elf</a></h1><div><p>very young red dragon grab helpless goblin as guide through the human world</p></div><hr><form action="/00000000/cafebabe" method="POST"><h4>Edit</h4><label for="title">Title:</label><input name="title" placeholder="No Title" size="44" type="text" value="warrior dark elf"><br><label for="text">Text:</label><br><textarea cols="58" name="text" placeholder="Write something..." rows="15">very young red dragon grab helpless goblin as guide through the human world</textarea><br><input name="fake_out_caching" type="hidden" value="1433741694"><input type="submit" value="post"></form></body></html>'
p314
sg22
g4
sbs(I16843009
I1
tp315
g0
(g10
g2
Ntp316
Rp317
(dp318
g14
(dp319
S'text'
p320
S'0 1  ;text:/01010102/00000002'
p321
sS'joy'
p322
(I0
(I1
(ttp323
tp324
sS'title'
p325
S'01'
p326
ssg20
S'<html><head><title>01</title><style>body { background:#cfc; }</style></head><body><h1><a href="/01010101/00000001">01</a></h1><div><p>0 1  ;<p><form action="/01010101/00000001" class="command" method="POST"><input name="fake_out_caching" type="hidden" value="41567031"><input name="command" type="hidden" value="/01010101/00000035"><input type="submit" value="clear"></form></p></p></div><hr><form action="/01010101/00000001" method="POST"><h4>Edit</h4><label for="title">Title:</label><input name="title" placeholder="You can use the editor below to write some text..." size="44" type="text" value="01"><br><label for="text">Text:</label><br><textarea cols="58" name="text" placeholder="Write something..." rows="15">0 1  ;text:/01010102/00000002</textarea><br><input name="fake_out_caching" type="hidden" value="2537374234"><input type="submit" value="post"></form></body></html>'
p327
sg22
g4
sbs(I0
I33
tp328
g0
(g10
g2
Ntp329
Rp330
(dp331
g14
(dp332
S'text'
p333
S'The massive black hole at the center of each galaxy is called the "Thronestar"..  Time slows down near the event horizon of such a titanic mass and galactic civilizations seek proximity to it as a means of prolonging existance.\r\n\r\ntext:/00000000/00080020\r\ncss:/12345678/12395678\r\nstack:/00000000/00000021\r\n/00000000/00080020'
p334
sS'joy'
p335
((I1
(I0
(ttp336
tp337
(ttp338
sS'stack'
p339
(tsS'title'
p340
S'Thronestar'
p341
ssg20
S'<html><head><title>Thronestar</title><style>form.command { display: inline; padding: 0.5em; }</style><style>@import url(http://fonts.googleapis.com/css?family=EB+Garamond);\r\n\r\nbody {\r\n  background: black;\r\n  color: #00ff00;\r\n  font-family: \'EB Garamond\', serif;\r\n  font-size: 133%;\r\n}\r\n\r\ndiv {\r\n  border: 0.1em solid;\r\n  border-radius: 3em;\r\n  padding: 1.25em 2.25em 1.25em 2.25em;\r\n}\r\n\r\n/*css:/12345678/12395681*/</style></head><body><h1><a href="/00000000/00000021">Thronestar</a></h1><div><p>The massive black hole at the center of each galaxy is called the "Thronestar"..  Time slows down near the event horizon of such a titanic mass and galactic civilizations seek proximity to it as a means of prolonging existance.</p><p><a class="door-link" href="/00000000/00000000">[Eumirion]</a>\r\n<form action="/00000000/00000021" class="command" method="POST"><input name="fake_out_caching" type="hidden" value="3332823626"><input name="command" type="hidden" value="/01010101/00000001"><input type="submit" value="01"></form><form action="/00000000/00000021" class="command" method="POST"><input name="fake_out_caching" type="hidden" value="2522899570"><input name="command" type="hidden" value="/01010101/00000035"><input type="submit" value="clear"></form><form action="/00000000/00000021" class="command" method="POST"><input name="fake_out_caching" type="hidden" value="4143636671"><input name="command" type="hidden" value="/01010101/00000037"><input type="submit" value="first"></form><form action="/00000000/00000021" class="command" method="POST"><input name="fake_out_caching" type="hidden" value="1079105139"><input name="command" type="hidden" value="/01010101/00000038"><input type="submit" value="enstacken"></form><form action="/00000000/00000021" class="command" method="POST"><input name="fake_out_caching" type="hidden" value="852230438"><input name="command" type="hidden" value="/01010101/00000039"><input type="submit" value="4d6"></form><form action="/00000000/00000021" class="command" method="POST"><input name="fake_out_caching" type="hidden" value="966116327"><input name="command" type="hidden" value="/01010101/00000040"><input type="submit" value="Roll four six-siders."></form>\r\n<ol></ol>\r\n\r\n\r\n\r\n<ol><li>[1 0]</li></ol>\r\n<a href="/00000000/00080020">Control Panel Testing</a></p></div><hr><form action="/00000000/00000021" method="POST"><h4>Edit</h4><label for="title">Title:</label><input name="title" placeholder="You can use the editor below to write some text..." size="44" type="text" value="Thronestar"><br><label for="text">Text:</label><br><textarea cols="58" name="text" placeholder="Write something..." rows="15">The massive black hole at the center of each galaxy is called the "Thronestar"..  Time slows down near the event horizon of such a titanic mass and galactic civilizations seek proximity to it as a means of prolonging existance.\r\n\r\ntext:/00000000/00080020\r\ncss:/12345678/12395678\r\nstack:/00000000/00000021\r\n/00000000/00080020</textarea><br><input name="fake_out_caching" type="hidden" value="170344253"><input type="submit" value="post"></form></body></html>'
p342
sg22
g4
sbs(I2290614272
I1
tp343
g0
(g10
g2
Ntp344
Rp345
(dp346
g14
(dp347
S'text'
p348
S'Technically not a spaceship.'
p349
sS'title'
p350
S'The TARDIS'
p351
ssg20
S'<html><head><title>The Tardis</title></head><body><h1><a href="/88880000/00000001">The Tardis</a></h1><div><p>Technically not a spaceship.</p></div><hr><form action="/88880000/00000001" method="POST"><h4>Edit</h4><label for="title">Title:</label><input name="title" placeholder="No Title" size="44" type="text" value="The Tardis"><br><label for="text">Text:</label><br><textarea cols="88" name="text" placeholder="Write something..." rows="5">Technically not a spaceship.</textarea><br><input name="fake_out_caching" type="hidden" value="60472379"><input type="submit" value="post"></form></body></html>'
p352
sg22
g4
sbs(I16843009
I67
tp353
g0
(g10
g2
Ntp354
Rp355
(dp356
g14
(dp357
S'text'
p358
S'pop;\r\njoy:/01010101/00000043\r\ntext:/01010102/00000002'
p359
sS'joy'
p360
(g0
(g43
g2
Ntp361
Rp362
(dp363
g47
S'pop'
p364
sg49
g250
sb(ttp365
sS'title'
p366
S'pop'
p367
ssg20
S'<html><head><title>pop</title><style>body { background:#cfc; }</style></head><body><h1><a href="/01010101/00000043">pop</a></h1><div>pop;\r\n\r\n<form action="/01010101/00000043" class="command" method="POST"><input name="fake_out_caching" type="hidden" value="3227969948"><input name="command" type="hidden" value="/01010101/00000035"><input type="submit" value="clear"></form></div><hr><form action="/01010101/00000043" method="POST"><h4>Edit</h4><label for="title">Title:</label><input name="title" placeholder="You can use the editor below to write some text..." size="44" type="text" value="pop"><br><label for="text">Text:</label><br><textarea cols="58" name="text" placeholder="Write something..." rows="15">pop;\r\njoy:/01010101/00000043\r\ntext:/01010102/00000002</textarea><br><input name="fake_out_caching" type="hidden" value="4156953929"><input type="submit" value="post"></form></body></html>'
p368
sg22
g4
sbs(I0
I25
tp369
g0
(g10
g2
Ntp370
Rp371
(dp372
g14
(dp373
g262
S'A spaceship.\r\n\r\nDocked in orbit around /00000000/00000000.'
p374
sg264
S'Excelsior'
p375
ssg20
S'<html><head><title>Excelsior</title></head><body><h1><a href="/00000000/00000019">Excelsior</a></h1><div><p>A spaceship.</p><p></p><p>Docked in orbit around <a href="/00000000/00000000">Eumirion</a>.</p></div><hr><form action="/00000000/00000019" method="POST"><h4>Edit</h4><label for="title">Title:</label><input name="title" placeholder="No Title" size="44" type="text" value="Excelsior"><br><label for="text">Text:</label><br><textarea cols="88" name="text" placeholder="Write something..." rows="5">A spaceship.\r\n\r\nDocked in orbit around /00000000/00000000.</textarea><br><input name="fake_out_caching" type="hidden" value="234453159"><input type="submit" value="post"></form></body></html>'
p376
sg22
g4
sbs(I16843010
I2
tp377
g0
(g10
g2
Ntp378
Rp379
(dp380
g14
(dp381
S'text'
p382
S'command:/01010101/00000035css:/12345678/01010101'
p383
sS'title'
p384
S'Template for commands.'
p385
ssg20
S'<html><head><title>Template for commands.</title><style>body { background:#cfc; }\r\nbody:first-child {\r\n  font-size:120%;\r\n}</style></head><body><h1><a href="/01010102/00000002">Template for commands.</a></h1><div><form action="/01010102/00000002" class="command" method="POST"><input name="fake_out_caching" type="hidden" value="3233048235"><input name="command" type="hidden" value="/01010101/00000035"><input type="submit" value="clear"></form></div><hr><form action="/01010102/00000002" method="POST"><h4>Edit</h4><label for="title">Title:</label><input name="title" placeholder="You can use the editor below to write some text..." size="44" type="text" value="Template for commands."><br><label for="text">Text:</label><br><textarea cols="58" name="text" placeholder="Write something..." rows="15">command:/01010101/00000035css:/12345678/01010101</textarea><br><input name="fake_out_caching" type="hidden" value="3006836370"><input type="submit" value="post"></form></body></html>'
p386
sg22
g4
sbs(I1511424
I3
tp387
g0
(g10
g2
Ntp388
Rp389
(dp390
g14
(dp391
g28
S'p:/00171000/00000001\r\ndiv:/00171000/00000001\r\ndiv:/00171000/00000004\r\ntext:/00171000/00000001'
p392
sg30
S'Some other junk.'
p393
ssg20
S'<html><head><title>Some other junk.</title></head><body><h1><a href="/00171000/00000003">Some other junk.</a></h1><div><p>Bananas are delicious.\r\n</p>\r\n<div>Bananas are delicious.\r\n</div>\r\n<div class="a-css-class">\r\nBananas are delicious.\r\n</div>\r\nBananas are delicious.\r\n</div><hr><form action="/00171000/00000003" method="POST"><h4>Edit</h4><label for="title">Title:</label><input name="title" placeholder="You can use the editor below to write some text..." size="44" type="text" value="Some other junk."><br><label for="text">Text:</label><br><textarea cols="58" name="text" placeholder="Write something..." rows="15">p:/00171000/00000001\r\ndiv:/00171000/00000001\r\ndiv:/00171000/00000004\r\ntext:/00171000/00000001</textarea><br><input name="fake_out_caching" type="hidden" value="585565672"><input type="submit" value="post"></form></body></html>'
p394
sg22
g4
sbs(I305419896
I305747587
tp395
g0
(g10
g2
Ntp396
Rp397
(dp398
g14
(dp399
g60
S'h1 {\r\n  animation-duration: 3s;\r\n  animation-name: slidein;\r\n  animation-iteration-count: infinite;\r\n}\r\n\r\n@keyframes slidein {\r\n  from {\r\n    margin-left: -100%;\r\n  }\r\n\r\n  75% {\r\n    font-size: 300%;\r\n    margin-left: 25%;\r\n  }\r\n\r\n  to {\r\n    margin-left: -100%;\r\n  }\r\n}'
p400
sg62
S'Making text slide across the browser window'
p401
ssg20
S'<html><head><title>Making text slide across the browser window</title></head><body><h1><a href="/12345678/12395683">Making text slide across the browser window</a></h1><div><p>h1 {\r\n  animation-duration: 3s;\r\n  animation-name: slidein;\r\n  animation-iteration-count: infinite;\r\n}</p><p>@keyframes slidein {\r\n  from {\r\n    margin-left: -100%;\r\n  }</p><p>  75% {\r\n    font-size: 300%;\r\n    margin-left: 25%;\r\n  }</p><p>  to {\r\n    margin-left: -100%;\r\n  }\r\n}</p></div><hr><form action="/12345678/12395683" method="POST"><h4>Edit</h4><label for="title">Title:</label><input name="title" placeholder="You can use the editor below to write some text..." size="44" type="text" value="Making text slide across the browser window"><br><label for="text">Text:</label><br><textarea cols="58" name="text" placeholder="Write something..." rows="15">h1 {\r\n  animation-duration: 3s;\r\n  animation-name: slidein;\r\n  animation-iteration-count: infinite;\r\n}\r\n\r\n@keyframes slidein {\r\n  from {\r\n    margin-left: -100%;\r\n  }\r\n\r\n  75% {\r\n    font-size: 300%;\r\n    margin-left: 25%;\r\n  }\r\n\r\n  to {\r\n    margin-left: -100%;\r\n  }\r\n}</textarea><br><input name="fake_out_caching" type="hidden" value="1128605158"><input type="submit" value="post"></form></body></html>'
p402
sg22
g4
sbs(I0
I32
tp403
g0
(g10
g2
Ntp404
Rp405
(dp406
g14
(dp407
g262
S"Not really, that's a TV show.\r\njump to /12345678/12345678\r\nbasil\r\ntext:/12345678/12345678\r\n"
p408
sg264
S'This Is The Outer Limits'
p409
ssg20
S'<html><head><title>This Is The Outer Limits</title><style>@import url(http://fonts.googleapis.com/css?family=EB+Garamond);\r\n\r\nbody {\r\n  background: black;\r\n  color: #00ff00;\r\n  font-family: \'EB Garamond\', serif;\r\n  font-size: 133%;\r\n}\r\n\r\ndiv {\r\n  border: 0.1em solid;\r\n  border-radius: 3em;\r\n  padding: 1.25em 2.25em 1.25em 2.25em;\r\n}\r\n\r\n/*css:/12345678/12395681*/</style><style>.door-link { \r\n  border: 1px solid black;\r\n  background: tan;\r\n  padding: 0.5em;\r\n}\r\n\r\n.door-link:hover {\r\n  border: 1px solid orange;\r\n  background: black;\r\n  color: tan;\r\n  padding: 0.75em;\r\n}\r\n/*css:/12345678/12395681*/</style></head><body><h1><a href="/00000000/00000020">This Is The Outer Limits</a></h1><div>Not really, that\'s a TV show.\r\njump to <a href="/12345678/12345678">Brobignagian</a>\r\nbasil\r\n<p>Very large and slightly awkward.\r\n</p><p>\r\n<a href="/00000000/00000000">Eumirion</a></p><p><a class="door-link" href="/00000000/00000020">[This Is The Outer Limits]</a></p><p></p>\r\n</div><hr><form action="/00000000/00000020" method="POST"><h4>Edit</h4><label for="title">Title:</label><input name="title" placeholder="You can use the editor below to write some text..." size="44" type="text" value="This Is The Outer Limits"><br><label for="text">Text:</label><br><textarea cols="58" name="text" placeholder="Write something..." rows="15">Not really, that\'s a TV show.\r\njump to /12345678/12345678\r\nbasil\r\ntext:/12345678/12345678\r\n</textarea><br><input name="fake_out_caching" type="hidden" value="1114690666"><input type="submit" value="post"></form></body></html>'
p410
sg22
g4
sbs(I1511424
I5
tp411
g0
(g10
g2
Ntp412
Rp413
(dp414
g14
(dp415
g60
S'If you render the stack into the page and create a command that puts a css: action onto the stack, then that CSS will take effect.  Try it: command:/01010101/00000041\r\n\r\nClick to stop the animation by removing the css: action from the page stack. command:/01010101/00000035\r\nstackinto:/00171000/00000005\r\n\r\nstack:/00171000/00000005'
p416
sg62
S'See Animation in Action'
p417
sS'joy'
p418
(S'css:/12345678/12395684'
p419
(ttp420
ssg20
S'<html><head><title>See Animation in Action</title><style>h1 {\r\n  animation-duration: 3s;\r\n  animation-name: slidein;\r\n  animation-iteration-count: infinite;\r\n}\r\n\r\n@keyframes slidein {\r\n  50% {\r\n    font-size: 300%;\r\n  }\r\n}</style></head><body><h1><a href="/00171000/00000005">See Animation in Action</a></h1><div><p>If you render the stack into the page and create a command that puts a css: action onto the stack, then that CSS will take effect.  Try it: <form action="/00171000/00000005" class="command" method="POST"><input name="fake_out_caching" type="hidden" value="655394390"><input name="command" type="hidden" value="/01010101/00000041"><input type="submit" value="Enstacken Pulse Title"></form></p><p>Click to stop the animation by removing the css: action from the page stack. <form action="/00171000/00000005" class="command" method="POST"><input name="fake_out_caching" type="hidden" value="2232154319"><input name="command" type="hidden" value="/01010101/00000035"><input type="submit" value="clear"></form>\r\n</p><p><ol><li>\'css:/12345678/12395684\'</li></ol></p></div><hr><form action="/00171000/00000005" method="POST"><h4>Edit</h4><label for="title">Title:</label><input name="title" placeholder="You can use the editor below to write some text..." size="44" type="text" value="See Animation in Action"><br><label for="text">Text:</label><br><textarea cols="58" name="text" placeholder="Write something..." rows="15">If you render the stack into the page and create a command that puts a css: action onto the stack, then that CSS will take effect.  Try it: command:/01010101/00000041\r\n\r\nClick to stop the animation by removing the css: action from the page stack. command:/01010101/00000035\r\nstackinto:/00171000/00000005\r\n\r\nstack:/00171000/00000005</textarea><br><input name="fake_out_caching" type="hidden" value="3350582976"><input type="submit" value="post"></form></body></html>'
p421
sg22
g4
sbs(I305419896
I0
tp422
g0
(g10
g2
Ntp423
Rp424
(dp425
g14
(dp426
g348
S'index:/12345678/cafebabe'
p427
sg350
S'Csses'
p428
ssg20
S'<html><head><title>Csses</title></head><body><h1><a href="/12345678/00000000">Csses</a></h1><div><ol><li><a href="/12345678/00000000">Csses</a><ol><li><a href="/12345678/00000023">command form CSS</a></li><li><a href="/12345678/01010101">Joy Css</a></li><li><a href="/12345678/12345678">Brobignagian</a></li><li><a href="/12345678/12395678">Some CSS</a></li><li><a href="/12345678/12395679">Door Css</a></li><li><a href="/12345678/12395680">jump to /12345678/12395680</a></li><li><a href="/12345678/12395681">CSS CSS</a></li><li><a href="/12345678/12395682">A CSS class</a></li><li><a href="/12345678/12395683">Making text slide across the browser window</a></li><li><a href="/12345678/12395684">Title slow pulse</a></li><li><a href="/12345678/12395685">Lof</a></li></ol></li></ol></div><hr><form action="/12345678/00000000" method="POST"><h4>Edit</h4><label for="title">Title:</label><input name="title" placeholder="You can use the editor below to write some text..." size="44" type="text" value="Csses"><br><label for="text">Text:</label><br><textarea cols="58" name="text" placeholder="Write something..." rows="15">index:/12345678/cafebabe</textarea><br><input name="fake_out_caching" type="hidden" value="3597564770"><input type="submit" value="post"></form></body></html>'
p429
sg22
g4
sbs(I2290614272
I0
tp430
g0
(g10
g2
Ntp431
Rp432
(dp433
g14
(dp434
g348
S'index:/88880000/00000000'
p435
sg350
S'Spaceships'
p436
ssg20
S'<html><head><title>Spaceships</title></head><body><h1><a href="/88880000/00000000">Spaceships</a></h1><div><p><ol><li><a href="/88880000/00000000">Spaceships</a><ol><li><a href="/88880000/00000001">The TARDIS</a></li></ol></li></ol></p></div><hr><form action="/88880000/00000000" method="POST"><h4>Edit</h4><label for="title">Title:</label><input name="title" placeholder="No Title" size="44" type="text" value="Spaceships"><br><label for="text">Text:</label><br><textarea cols="88" name="text" placeholder="Write something..." rows="5">index:/88880000/00000000</textarea><br><input name="fake_out_caching" type="hidden" value="2859869683"><input type="submit" value="post"></form></body></html>'
p437
sg22
g4
sbs(I2003828736
I0
tp438
g0
(g10
g2
Ntp439
Rp440
(dp441
g14
(dp442
S'text'
p443
S'I want to provide tools that can be used in-server to parametrically create things like star systems, species, artifacts and phenomenon, etc... using e.g. 2d6 5d12 1d20 &c. D&D-style "dice" and charts.  Maybe pull content from fan wikis of sci-fi shows and books etc...\r\n\r\ncommand:/01010101/00000040\r\ncommand:/01010101/00000042\r\ncommand:/01010101/00000043\r\ncommand:/01010101/00000035\r\n\r\ncss:/12345678/12395678css:/12345678/00000023\r\nParametric dice are easy to make, along with tables and ways to sample from the tables to build new content and load it into the server.\r\nstackinto:/77700000/00000000'
p444
sS'joy'
p445
(I14
(I17
(I17
(I16
(ttp446
tp447
tp448
tp449
sS'title'
p450
S'Parametric Creation Of Content, Including Planets'
p451
ssg20
S'<html><head><title>Parametric Creation Of Content, Including Planets</title><style>@import url(http://fonts.googleapis.com/css?family=EB+Garamond);\r\n\r\nbody {\r\n  background: black;\r\n  color: #00ff00;\r\n  font-family: \'EB Garamond\', serif;\r\n  font-size: 133%;\r\n}\r\n\r\ndiv {\r\n  border: 0.1em solid;\r\n  border-radius: 3em;\r\n  padding: 1.25em 2.25em 1.25em 2.25em;\r\n}\r\n\r\n/*css:/12345678/12395681*/</style><style>form.command { display: inline; padding: 0.5em; }</style></head><body><h1><a href="/77700000/00000000">Parametric Creation Of Content, Including Planets</a></h1><div><p>I want to provide tools that can be used in-server to parametrically create things like star systems, species, artifacts and phenomenon, etc... using e.g. 2d6 5d12 1d20 &amp;c. D&amp;D-style "dice" and charts.  Maybe pull content from fan wikis of sci-fi shows and books etc...</p><p><form action="/77700000/00000000" class="command" method="POST"><input name="fake_out_caching" type="hidden" value="2412548633"><input name="command" type="hidden" value="/01010101/00000040"><input type="submit" value="Roll four six-siders."></form>\r\n<form action="/77700000/00000000" class="command" method="POST"><input name="fake_out_caching" type="hidden" value="2112226063"><input name="command" type="hidden" value="/01010101/00000042"><input type="submit" value="Remove lowest and sum."></form>\r\n<form action="/77700000/00000000" class="command" method="POST"><input name="fake_out_caching" type="hidden" value="2757064895"><input name="command" type="hidden" value="/01010101/00000043"><input type="submit" value="pop"></form>\r\n<form action="/77700000/00000000" class="command" method="POST"><input name="fake_out_caching" type="hidden" value="2397958891"><input name="command" type="hidden" value="/01010101/00000035"><input type="submit" value="clear"></form></p><p>\r\nParametric dice are easy to make, along with tables and ways to sample from the tables to build new content and load it into the server.\r\n14171716</p></div><hr><form action="/77700000/00000000" method="POST"><h4>Edit</h4><label for="title">Title:</label><input name="title" placeholder="You can use the editor below to write some text..." size="44" type="text" value="Parametric Creation Of Content, Including Planets"><br><label for="text">Text:</label><br><textarea cols="58" name="text" placeholder="Write something..." rows="15">I want to provide tools that can be used in-server to parametrically create things like star systems, species, artifacts and phenomenon, etc... using e.g. 2d6 5d12 1d20 &amp;c. D&amp;D-style "dice" and charts.  Maybe pull content from fan wikis of sci-fi shows and books etc...\r\n\r\ncommand:/01010101/00000040\r\ncommand:/01010101/00000042\r\ncommand:/01010101/00000043\r\ncommand:/01010101/00000035\r\n\r\ncss:/12345678/12395678css:/12345678/00000023\r\nParametric dice are easy to make, along with tables and ways to sample from the tables to build new content and load it into the server.\r\nstackinto:/77700000/00000000</textarea><br><input name="fake_out_caching" type="hidden" value="308137009"><input type="submit" value="post"></form></body></html>'
p452
sg22
g4
sbs(I16843009
I0
tp453
g0
(g10
g2
Ntp454
Rp455
(dp456
g14
(dp457
g116
S'a b [c d] [e f] while\r\ncss:/12345678/01010101'
p458
sg118
S'Joy Code'
p459
ssg20
S'<html><head><title>Joy Code</title><style>body { background:#cfc; }</style></head><body><h1><a href="/01010101/00000000">Joy Code</a></h1><div><p>a b [c d] [e f] while</p><p></p></div><hr><form action="/01010101/00000000" method="POST"><h4>Edit</h4><label for="title">Title:</label><input name="title" placeholder="No Title" size="44" type="text" value="Joy Code"><br><label for="text">Text:</label><br><textarea cols="88" name="text" placeholder="Write something..." rows="5">a b [c d] [e f] while\r\ncss:/12345678/01010101</textarea><br><input name="fake_out_caching" type="hidden" value="1219654015"><input type="submit" value="post"></form></body></html>'
p460
sg22
g4
sbs(I1911
I4370
tp461
g0
(g10
g2
Ntp462
Rp463
(dp464
g14
(dp465
g60
S'div:/00000777/00001111\r\n\r\ncss:/12345678/12395685\r\n'
p466
sg62
S'((a)(b))'
p467
ssg20
S'<html><head><title>((a)(b))</title><style>.lof {\r\n  border-top: 2px solid black;\r\n  border-right: 2px solid black;\r\n  padding: 0.25em;\r\n  margin: 0.25em;\r\n  float: left;\r\n}\r\n/*\r\ncss:/12345678/12395681\r\ncss:/12345678/12395685\r\ncssclass:/12345678/12395682\r\n*/</style></head><body><h1><a href="/00000777/00001112">((a)(b))</a></h1><div><p><div class="lof"><div class="lof">A\r\n\r\n</div>\r\n<div class="lof">B\r\n\r\n</div>\r\n\r\n</div></p><p>\r\n</p></div><hr><form action="/00000777/00001112" method="POST"><h4>Edit</h4><label for="title">Title:</label><input name="title" placeholder="You can use the editor below to write some text..." size="44" type="text" value="((a)(b))"><br><label for="text">Text:</label><br><textarea cols="58" name="text" placeholder="Write something..." rows="15">div:/00000777/00001111\r\n\r\ncss:/12345678/12395685\r\n</textarea><br><input name="fake_out_caching" type="hidden" value="3721182688"><input type="submit" value="post"></form></body></html>'
p468
sg22
g4
sbs(I1511424
I1
tp469
g0
(g10
g2
Ntp470
Rp471
(dp472
g14
(dp473
g106
S'Bananas are delicious.\r\n'
p474
sg108
S'Bananas'
p475
ssg20
S'<html><head><title>Bananas</title></head><body><h1><a href="/00171000/00000001">Bananas</a></h1><div>Bananas are delicious.\r\n</div><hr><form action="/00171000/00000001" method="POST"><h4>Edit</h4><label for="title">Title:</label><input name="title" placeholder="You can use the editor below to write some text..." size="44" type="text" value="Bananas"><br><label for="text">Text:</label><br><textarea cols="58" name="text" placeholder="Write something..." rows="15">Bananas are delicious.\r\n</textarea><br><input name="fake_out_caching" type="hidden" value="815412886"><input type="submit" value="post"></form></body></html>'
p476
sg22
g4
sbs(I16843009
I53
tp477
g0
(g10
g2
Ntp478
Rp479
(dp480
g14
(dp481
g310
S'clear ;joy:/01010101/00000035text:/01010102/00000002'
p482
sg322
(g0
(g43
g2
Ntp483
Rp484
(dp485
g47
S'clear'
p486
sg49
g192
sb(ttp487
sg312
S'clear'
p488
ssg20
S'<html><head><title>clear</title><style>body { background:#cfc; }</style></head><body><h1><a href="/01010101/00000035">clear</a></h1><div>clear ;<form action="/01010101/00000035" class="command" method="POST"><input name="fake_out_caching" type="hidden" value="3164265784"><input name="command" type="hidden" value="/01010101/00000035"><input type="submit" value="clear"></form></div><hr><form action="/01010101/00000035" method="POST"><h4>Edit</h4><label for="title">Title:</label><input name="title" placeholder="You can use the editor below to write some text..." size="44" type="text" value="clear"><br><label for="text">Text:</label><br><textarea cols="58" name="text" placeholder="Write something..." rows="15">clear ;joy:/01010101/00000035text:/01010102/00000002</textarea><br><input name="fake_out_caching" type="hidden" value="883333796"><input type="submit" value="post"></form></body></html>'
p489
sg22
g4
sbs(I305415800
I0
tp490
g0
(g10
g2
Ntp491
Rp492
(dp493
g14
(dp494
S'text'
p495
S'You add zee content!\r\nstackinto:/77700000/00000000\r\ncommand:/77700000/00000000\r\nstackinto:/12344678/00000000\r\ncommand:/01010101/00000035\r\n'
p496
sS'title'
p497
S'And then...'
p498
sg418
((I1
(I2
(I4
(I5
(ttp499
tp500
tp501
tp502
((I1
(I4
(I4
(I1
(ttp503
tp504
tp505
tp506
((I5
(I4
(I6
(I1
(ttp507
tp508
tp509
tp510
((I4
(I2
(I6
(I1
(ttp511
tp512
tp513
tp514
((I2
(I3
(I6
(I5
(ttp515
tp516
tp517
tp518
((I5
(I5
(I2
(I5
(ttp519
tp520
tp521
tp522
(ttp523
tp524
tp525
tp526
tp527
tp528
ssg20
S'<html><head><title>And then...</title></head><body><h1><a href="/12344678/00000000">And then...</a></h1><div>You add zee content!\r\n[4 3 6 2]\r\n<form action="/12344678/00000000" class="command" method="POST"><input name="fake_out_caching" type="hidden" value="1026204149"><input name="command" type="hidden" value="/77700000/00000000"><input type="submit" value="Parametric Creation Of Content, Including Planets"></form>\r\n[1 2 4 5][1 4 4 1][5 4 6 1][4 2 6 1][2 3 6 5][5 5 2 5]\r\n<form action="/12344678/00000000" class="command" method="POST"><input name="fake_out_caching" type="hidden" value="2938534671"><input name="command" type="hidden" value="/01010101/00000035"><input type="submit" value="clear"></form>\r\n</div><hr><form action="/12344678/00000000" method="POST"><h4>Edit</h4><label for="title">Title:</label><input name="title" placeholder="You can use the editor below to write some text..." size="44" type="text" value="And then..."><br><label for="text">Text:</label><br><textarea cols="58" name="text" placeholder="Write something..." rows="15">You add zee content!\r\nstackinto:/77700000/00000000\r\ncommand:/77700000/00000000\r\nstackinto:/12344678/00000000\r\ncommand:/01010101/00000035\r\n</textarea><br><input name="fake_out_caching" type="hidden" value="819894736"><input type="submit" value="post"></form></body></html>'
p529
sg22
g4
sbs(I305419896
I305747576
tp530
g0
(g10
g2
Ntp531
Rp532
(dp533
g14
(dp534
S'text'
p535
S"@import url(http://fonts.googleapis.com/css?family=EB+Garamond);\r\n\r\nbody {\r\n  background: black;\r\n  color: #00ff00;\r\n  font-family: 'EB Garamond', serif;\r\n  font-size: 133%;\r\n}\r\n\r\ndiv {\r\n  border: 0.1em solid;\r\n  border-radius: 3em;\r\n  padding: 1.25em 2.25em 1.25em 2.25em;\r\n}\r\n\r\n/*css:/12345678/12395681*/"
p536
sS'title'
p537
S'Some CSS'
p538
ssg20
S'<html><head><title>Some CSS</title><style>p {\r\n  margin: 0px;\r\n}\r\n \r\ndiv { background: #ffa; }\r\n\r\n/*css:/12345678/12395681*/</style></head><body><h1><a href="/12345678/12395678">Some CSS</a></h1><div><p>@import url(http://fonts.googleapis.com/css?family=EB+Garamond);</p><p></p><p>body {</p><p>  background: black;</p><p>  color: #00ff00;</p><p>  font-family: \'EB Garamond\', serif;</p><p>  font-size: 133%;</p><p>}</p><p></p><p>div {</p><p>  border: 0.1em solid;</p><p>  border-radius: 3em;</p><p>  padding: 1.25em 2.25em 1.25em 2.25em;</p><p>}</p><p></p><p>/**/</p></div><hr><form action="/12345678/12395678" method="POST"><h4>Edit</h4><label for="title">Title:</label><input name="title" placeholder="No Title" size="44" type="text" value="Some CSS"><br><label for="text">Text:</label><br><textarea cols="58" name="text" placeholder="Write something..." rows="15">@import url(http://fonts.googleapis.com/css?family=EB+Garamond);\r\n\r\nbody {\r\n  background: black;\r\n  color: #00ff00;\r\n  font-family: \'EB Garamond\', serif;\r\n  font-size: 133%;\r\n}\r\n\r\ndiv {\r\n  border: 0.1em solid;\r\n  border-radius: 3em;\r\n  padding: 1.25em 2.25em 1.25em 2.25em;\r\n}\r\n\r\n/*css:/12345678/12395681*/</textarea><br><input name="fake_out_caching" type="hidden" value="1459831538"><input type="submit" value="post"></form></body></html>'
p539
sg22
g4
sbs(I305419896
I305747588
tp540
g0
(g10
g2
Ntp541
Rp542
(dp543
g14
(dp544
g60
S'h1 {\r\n  animation-duration: 3s;\r\n  animation-name: slidein;\r\n  animation-iteration-count: infinite;\r\n}\r\n\r\n@keyframes slidein {\r\n  50% {\r\n    font-size: 300%;\r\n  }\r\n}'
p545
sg62
S'Title slow pulse'
p546
ssg20
S'<html><head><title>Title slow pulse</title></head><body><h1><a href="/12345678/12395684">Title slow pulse</a></h1><div><p>h1 {\r\n  animation-duration: 3s;\r\n  animation-name: slidein;\r\n  animation-iteration-count: infinite;\r\n}</p><p>@keyframes slidein {\r\n  50% {\r\n    font-size: 300%;\r\n  }\r\n}</p></div><hr><form action="/12345678/12395684" method="POST"><h4>Edit</h4><label for="title">Title:</label><input name="title" placeholder="You can use the editor below to write some text..." size="44" type="text" value="Title slow pulse"><br><label for="text">Text:</label><br><textarea cols="58" name="text" placeholder="Write something..." rows="15">h1 {\r\n  animation-duration: 3s;\r\n  animation-name: slidein;\r\n  animation-iteration-count: infinite;\r\n}\r\n\r\n@keyframes slidein {\r\n  50% {\r\n    font-size: 300%;\r\n  }\r\n}</textarea><br><input name="fake_out_caching" type="hidden" value="3427469998"><input type="submit" value="post"></form></body></html>'
p547
sg22
g4
sbs(I305419896
I35
tp548
g0
(g10
g2
Ntp549
Rp550
(dp551
g14
(dp552
g310
S'form.command { display: inline; padding: 0.5em; }'
p553
sg312
S'command form CSS'
p554
ssg20
S'<html><head><title>command form CSS</title></head><body><h1><a href="/12345678/00000023">command form CSS</a></h1><div><p>form.command { display: inline; padding: 0.5em; }</p></div><hr><form action="/12345678/00000023" method="POST"><h4>Edit</h4><label for="title">Title:</label><input name="title" placeholder="No Title" size="44" type="text" value="command form CSS"><br><label for="text">Text:</label><br><textarea cols="58" name="text" placeholder="Write something..." rows="15">form.command { display: inline; padding: 0.5em; }</textarea><br><input name="fake_out_caching" type="hidden" value="3229924183"><input type="submit" value="post"></form></body></html>'
p555
sg22
g4
sbs(I0
I3405691568
tp556
g0
(g10
g2
Ntp557
Rp558
(dp559
g14
(dp560
S'text'
p561
S'qwrqwrqe /00000000/00000000\r\n\r\nqeerqerqe\r\n\r\ntext:/00000000/00000000'
p562
sS'title'
p563
S'Demo'
p564
ssg20
S'<html><head><title>Demo</title><style>.door-link { \r\n  border: 1px solid black;\r\n  background: tan;\r\n  padding: 0.5em;\r\n}\r\n\r\n.door-link:hover {\r\n  border: 1px solid orange;\r\n  background: black;\r\n  color: tan;\r\n  padding: 0.75em;\r\n}\r\n/*css:/12345678/12395681*/</style></head><body><h1><a href="/00000000/cafebab0">Demo</a></h1><div><p>qwrqwrqe <a href="/00000000/00000000">Eumirion</a></p><p>qeerqerqe</p><p><p>Home\r\nClick here to parametrically create a solar system. <a href="/77700000/00000000">Parametric Creation Of Content, Including Planets</a></p><p> unknown action "has:"<a href="/00000000/00000019">Excelsior</a> unknown action "inset:"<a href="/00000000/00000021">Thronestar</a> <a href="/00000000/00000003">Is This An Index?</a></p><p><a class="door-link" href="/00000000/00000020">[This Is The Outer Limits]</a></p><p>\r\n</p></p></div><hr><form action="/00000000/cafebab0" method="POST"><h4>Edit</h4><label for="title">Title:</label><input name="title" placeholder="You can use the editor below to write some text..." size="44" type="text" value="Demo"><br><label for="text">Text:</label><br><textarea cols="58" name="text" placeholder="Write something..." rows="15">qwrqwrqe /00000000/00000000\r\n\r\nqeerqerqe\r\n\r\ntext:/00000000/00000000</textarea><br><input name="fake_out_caching" type="hidden" value="3598580584"><input type="submit" value="post"></form></body></html>'
p565
sg22
g4
sbs(I16843009
I66
tp566
g0
(g10
g2
Ntp567
Rp568
(dp569
g14
(dp570
g358
S'dup min remove sum\r\n;\r\nThis is a companion command to the /01010101/00000040 command.  Together they implement one of the old methods for rolling D&D character stats.  You wanted to get 3d6 but with a bias towards higher rolls, so one way to do that is to roll 4d6 and drop the lowest roll from the sum.\r\n\r\nOnce you have used /01010101/00000040 to generate four 1d6 rolls you can use this command to find the lowest roll, remove it, and add up the rest.\r\n\r\nTry it at /77700000/00000000\r\n\r\njoy:/01010101/00000042\r\ntext:/01010102/00000002'
p571
sg360
(g0
(g43
g2
Ntp572
Rp573
(dp574
g47
S'dup'
p575
sg49
ceumi.joy.library
dup
p576
sb(g0
(g43
g2
Ntp577
Rp578
(dp579
g47
S'min'
p580
sg49
ceumi.joy.library
min_
p581
sb(g0
(g43
g2
Ntp582
Rp583
(dp584
g47
S'remove'
p585
sg49
ceumi.joy.library
remove
p586
sb(g0
(g43
g2
Ntp587
Rp588
(dp589
g47
S'sum'
p590
sg49
ceumi.joy.library
sum_
p591
sb(ttp592
tp593
tp594
tp595
sg366
S'Remove lowest and sum.'
p596
ssg20
S'<html><head><title>Remove lowest and sum.</title><style>body { background:#cfc; }</style></head><body><h1><a href="/01010101/00000042">Remove lowest and sum.</a></h1><div><p>dup min remove sum\r\n;\r\nThis is a companion command to the <a href="/01010101/00000040">Roll four six-siders.</a> command.  Together they implement one of the old methods for rolling D&amp;D character stats.  You wanted to get 3d6 but with a bias towards higher rolls, so one way to do that is to roll 4d6 and drop the lowest roll from the sum.</p><p>Once you have used <a href="/01010101/00000040">Roll four six-siders.</a> to generate four 1d6 rolls you can use this command to find the lowest roll, remove it, and add up the rest.</p><p>Try it at <a href="/77700000/00000000">Parametric Creation Of Content, Including Planets</a></p><p>\r\n<form action="/01010101/00000042" class="command" method="POST"><input name="fake_out_caching" type="hidden" value="3433105680"><input name="command" type="hidden" value="/01010101/00000035"><input type="submit" value="clear"></form></p></div><hr><form action="/01010101/00000042" method="POST"><h4>Edit</h4><label for="title">Title:</label><input name="title" placeholder="You can use the editor below to write some text..." size="44" type="text" value="Remove lowest and sum."><br><label for="text">Text:</label><br><textarea cols="58" name="text" placeholder="Write something..." rows="15">dup min remove sum\r\n;\r\nThis is a companion command to the /01010101/00000040 command.  Together they implement one of the old methods for rolling D&amp;D character stats.  You wanted to get 3d6 but with a bias towards higher rolls, so one way to do that is to roll 4d6 and drop the lowest roll from the sum.\r\n\r\nOnce you have used /01010101/00000040 to generate four 1d6 rolls you can use this command to find the lowest roll, remove it, and add up the rest.\r\n\r\nTry it at /77700000/00000000\r\n\r\njoy:/01010101/00000042\r\ntext:/01010102/00000002</textarea><br><input name="fake_out_caching" type="hidden" value="1582367270"><input type="submit" value="post"></form></body></html>'
p597
sg22
g4
sbs(I1911
I0
tp598
g0
(g10
g2
Ntp599
Rp600
(dp601
g14
(dp602
g60
S'The Universal Language.\r\nindex:/00000777/00000000'
p603
sg62
S'Laws of Form'
p604
ssg20
S'<html><head><title>Laws of Form</title></head><body><h1><a href="/00000777/00000000">Laws of Form</a></h1><div>The Universal Language.\r\n<ol><li><a href="/00000777/00000000">Laws of Form</a><ol></ol></li></ol></div><hr><form action="/00000777/00000000" method="POST"><h4>Edit</h4><label for="title">Title:</label><input name="title" placeholder="You can use the editor below to write some text..." size="44" type="text" value="Laws of Form"><br><label for="text">Text:</label><br><textarea cols="58" name="text" placeholder="Write something..." rows="15">The Universal Language.\r\nindex:/00000777/00000000</textarea><br><input name="fake_out_caching" type="hidden" value="268287552"><input type="submit" value="post"></form></body></html>'
p605
sg22
g4
sbs(I305419896
I305747584
tp606
g0
(g10
g2
Ntp607
Rp608
(dp609
g14
(dp610
g96
S''
p611
sg98
g611
ssg20
S'<html><head><title>/12345678/12395680</title></head><body><h1><a href="/12345678/12395680">No Title</a></h1><div><p class="default-text">You can use the editor below to write some text...</p></div><hr><form action="/12345678/12395680" method="POST"><h4>Edit</h4><label for="title">Title:</label><input name="title" placeholder="No Title" size="44" type="text" value=""><br><label for="text">Text:</label><br><textarea cols="58" name="text" placeholder="Write something..." rows="15"></textarea><br><input name="fake_out_caching" type="hidden" value="681643869"><input type="submit" value="post"></form></body></html>'
p612
sg22
g4
sbs(I16843009
I65
tp613
g0
(g10
g2
Ntp614
Rp615
(dp616
g14
(dp617
g60
S'"css:/12345678/12395684"\r\n;\r\njoy:/01010101/00000041\r\ncommand:/01010101/00000035'
p618
sg62
S'Enstacken Pulse Title'
p619
sg418
(g419
(ttp620
ssg20
S'<html><head><title>Enstacken Pulse Title</title><style>h1 {\r\n  animation-duration: 3s;\r\n  animation-name: slidein;\r\n  animation-iteration-count: infinite;\r\n}\r\n\r\n@keyframes slidein {\r\n  50% {\r\n    font-size: 300%;\r\n  }\r\n}</style></head><body><h1><a href="/01010101/00000041">Enstacken Pulse Title</a></h1><div>""\r\n;\r\n\r\n<form action="/01010101/00000041" class="command" method="POST"><input name="fake_out_caching" type="hidden" value="2652754812"><input name="command" type="hidden" value="/01010101/00000035"><input type="submit" value="clear"></form></div><hr><form action="/01010101/00000041" method="POST"><h4>Edit</h4><label for="title">Title:</label><input name="title" placeholder="You can use the editor below to write some text..." size="44" type="text" value="Enstacken Pulse Title"><br><label for="text">Text:</label><br><textarea cols="58" name="text" placeholder="Write something..." rows="15">"css:/12345678/12395684"\r\n;\r\njoy:/01010101/00000041\r\ncommand:/01010101/00000035</textarea><br><input name="fake_out_caching" type="hidden" value="315762847"><input type="submit" value="post"></form></body></html>'
p621
sg22
g4
sbssS'pather'
p622
ceumi.server
pather
p623
sS'page_renderer'
p624
ceumi.page
Page
p625
sS'modified'
p626
I00
sb.