ccopy_reg
_reconstructor
p0
(ceumi.server
EumiServer
p1
c__builtin__
object
p2
Ntp3
Rp4
(dp5
S'debug'
p6
I00
sS'router'
p7
(dp8
(I16843009
I57
tp9
g0
(ceumi.server
PageHandler
p10
g2
Ntp11
Rp12
(dp13
S'data'
p14
(dp15
S'text'
p16
S'4 6 d ;joy:/01010101/00000039text:/01010102/00000002'
p17
sS'joy'
p18
(I4
(I6
(g0
(ceumi.joy.functions
FunctionWrapper
p19
g2
Ntp20
Rp21
(dp22
S'name'
p23
S'd'
p24
sS'f'
p25
ceumi.joy.morewords
d
p26
sb(ttp27
tp28
tp29
sS'title'
p30
S'4d6'
p31
ssS'response'
p32
S'<html><head><title>4d6</title><style>body { background:#cfc; }</style></head><body><h1><a href="/01010101/00000039">4d6</a></h1><div>4 6 d ;<form action="/01010101/00000039" class="command" method="POST"><input name="fake_out_caching" type="hidden" value="676163095"><input name="command" type="hidden" value="/01010101/00000035"><input type="submit" value="clear"></form></div><hr><form action="/01010101/00000039" method="POST"><h4>Edit</h4><label for="title">Title:</label><input name="title" placeholder="You can use the editor below to write some text..." size="44" type="text" value="4d6"><br><label for="text">Text:</label><br><textarea cols="58" name="text" placeholder="Write something..." rows="15">4 6 d ;joy:/01010101/00000039text:/01010102/00000002</textarea><br><input name="fake_out_caching" type="hidden" value="931766936"><input type="submit" value="post"></form></body></html>'
p33
sS'server'
p34
g4
sbs(I305419896
I305747585
tp35
g0
(g10
g2
Ntp36
Rp37
(dp38
g14
(dp39
S'text'
p40
S'p {\r\n  margin: 0px;\r\n}\r\n \r\ndiv { background: #ffa; }\r\n\r\n/*css:/12345678/12395681*/'
p41
sS'title'
p42
S'CSS CSS'
p43
ssg32
S'<html><head><title>CSS CSS</title><style>p {\r\n  margin: 0px;\r\n}\r\n \r\ndiv { background: #ffa; }\r\n\r\n/*css:/12345678/12395681*/</style></head><body><h1><a href="/12345678/12395681">CSS CSS</a></h1><div><p>p {</p><p>  margin: 0px;</p><p>}</p><p> </p><p>div { background: #ffa; }</p><p></p><p>/**/</p></div><hr><form action="/12345678/12395681" method="POST"><h4>Edit</h4><label for="title">Title:</label><input name="title" placeholder="No Title" size="44" type="text" value="CSS CSS"><br><label for="text">Text:</label><br><textarea cols="58" name="text" placeholder="Write something..." rows="15">p {\r\n  margin: 0px;\r\n}\r\n \r\ndiv { background: #ffa; }\r\n\r\n/*css:/12345678/12395681*/</textarea><br><input name="fake_out_caching" type="hidden" value="36988113"><input type="submit" value="post"></form></body></html>'
p44
sg34
g4
sbs(I1915748352
I0
tp45
g0
(g10
g2
Ntp46
Rp47
(dp48
g14
(dp49
S'text'
p50
S"Go to /00000000/00000000\r\n\r\nRemove the space between 'text:' and /72300000/00000000 in the link below to see the error that happens when there is a loop in the text tree.\r\n\r\ntext: /72300000/00000000"
p51
sS'title'
p52
S'Whoops'
p53
ssg32
S'<html><head><title>Whoops</title></head><body><h1><a href="/72300000/00000000">Whoops</a></h1><div><p>Go to <a href="/00000000/00000000">Eumirion</a></p><p>Remove the space between \'text:\' and <a href="/72300000/00000000">Whoops</a> in the link below to see the error that happens when there is a loop in the text tree.</p><p>text: <a href="/72300000/00000000">Whoops</a></p></div><hr><form action="/72300000/00000000" method="POST"><h4>Edit</h4><label for="title">Title:</label><input name="title" placeholder="You can use the editor below to write some text..." size="44" type="text" value="Whoops"><br><label for="text">Text:</label><br><textarea cols="58" name="text" placeholder="Write something..." rows="15">Go to /00000000/00000000\r\n\r\nRemove the space between \'text:\' and /72300000/00000000 in the link below to see the error that happens when there is a loop in the text tree.\r\n\r\ntext: /72300000/00000000</textarea><br><input name="fake_out_caching" type="hidden" value="2229852314"><input type="submit" value="post"></form></body></html>'
p54
sg34
g4
sbs(I305419896
I16843009
tp55
g0
(g10
g2
Ntp56
Rp57
(dp58
g14
(dp59
S'text'
p60
S'body { background:#cfc; }'
p61
sS'title'
p62
S'Joy Css'
p63
ssg32
S'<html><head><title>Joy Css</title></head><body><h1><a href="/12345678/01010101">Joy Css</a></h1><div><p>body { background:#cfc; }</p></div><hr><form action="/12345678/01010101" method="POST"><h4>Edit</h4><label for="title">Title:</label><input name="title" placeholder="No Title" size="44" type="text" value="Joy Css"><br><label for="text">Text:</label><br><textarea cols="88" name="text" placeholder="Write something..." rows="5">body { background:#cfc; }</textarea><br><input name="fake_out_caching" type="hidden" value="2675289055"><input type="submit" value="post"></form></body></html>'
p64
sg34
g4
sbs(I16843009
I64
tp65
g0
(g10
g2
Ntp66
Rp67
(dp68
g14
(dp69
S'text'
p70
S'1 6 d 1 6 d 1 6 d 1 6 d [] cons cons cons cons\r\n;\r\n\r\nResults in a list [1d6 1d6 1d6 1d6]\r\n\r\nThen you can remove the least of the four and sum the remaining three to get a score for a D&D stat, "Roll 4d6 and discard the lowest roll."\r\n\r\n[] [[1 6 d] 4 times] infra\r\n\r\n[1 6 d] 4 times [] [cons] 4 times\r\n\r\ndup min remove sum\r\n\r\njoy:/01010101/00000040text:/01010102/00000002'
p71
sS'joy'
p72
(I1
(I6
(g0
(g19
g2
Ntp73
Rp74
(dp75
g23
S'd'
p76
sg25
g26
sb(I1
(I6
(g74
(I1
(I6
(g74
(I1
(I6
(g74
((t(g0
(g19
g2
Ntp77
Rp78
(dp79
g23
S'cons'
p80
sg25
ceumi.joy.library
cons
p81
sb(g78
(g78
(g78
(ttp82
tp83
tp84
tp85
tp86
tp87
tp88
tp89
tp90
tp91
tp92
tp93
tp94
tp95
tp96
tp97
tp98
sS'title'
p99
S'Roll four six-siders.'
p100
ssg32
S'<html><head><title>Roll four six-siders.</title><style>body { background:#cfc; }</style></head><body><h1><a href="/01010101/00000040">Roll four six-siders.</a></h1><div><p>1 6 d 1 6 d 1 6 d 1 6 d [] cons cons cons cons\r\n;</p><p>Results in a list [1d6 1d6 1d6 1d6]</p><p>Then you can remove the least of the four and sum the remaining three to get a score for a D&amp;D stat, "Roll 4d6 and discard the lowest roll."</p><p>[] [[1 6 d] 4 times] infra</p><p>[1 6 d] 4 times [] [cons] 4 times</p><p>dup min remove sum</p><p><form action="/01010101/00000040" class="command" method="POST"><input name="fake_out_caching" type="hidden" value="4174111000"><input name="command" type="hidden" value="/01010101/00000035"><input type="submit" value="clear"></form></p></div><hr><form action="/01010101/00000040" method="POST"><h4>Edit</h4><label for="title">Title:</label><input name="title" placeholder="You can use the editor below to write some text..." size="44" type="text" value="Roll four six-siders."><br><label for="text">Text:</label><br><textarea cols="58" name="text" placeholder="Write something..." rows="15">1 6 d 1 6 d 1 6 d 1 6 d [] cons cons cons cons\r\n;\r\n\r\nResults in a list [1d6 1d6 1d6 1d6]\r\n\r\nThen you can remove the least of the four and sum the remaining three to get a score for a D&amp;D stat, "Roll 4d6 and discard the lowest roll."\r\n\r\n[] [[1 6 d] 4 times] infra\r\n\r\n[1 6 d] 4 times [] [cons] 4 times\r\n\r\ndup min remove sum\r\n\r\njoy:/01010101/00000040text:/01010102/00000002</textarea><br><input name="fake_out_caching" type="hidden" value="3822274631"><input type="submit" value="post"></form></body></html>'
p101
sg34
g4
sbs(I1511424
I0
tp102
g0
(g10
g2
Ntp103
Rp104
(dp105
g14
(dp106
S'text'
p107
S'div:/00171000/00000001\r\np:/00171000/00000001\r\nol:/00171000/00000002\r\ntext:/00171000/00000001\r\ntext:/00171000/00000001\r\np:/00171000/00000001\r\nul:/00171000/00000002\r\ndiv:/00171000/00000001\r\ncss:/12345678/12395678'
p108
sS'title'
p109
S'Try the new stuff'
p110
ssg32
S'<html><head><title>Try the new stuff</title><style>@import url(http://fonts.googleapis.com/css?family=EB+Garamond);\r\n\r\nbody {\r\n  background: black;\r\n  color: #00ff00;\r\n  font-family: \'EB Garamond\', serif;\r\n  font-size: 133%;\r\n}\r\n\r\ndiv {\r\n  border: 0.1em solid;\r\n  border-radius: 3em;\r\n  padding: 1.25em 2.25em 1.25em 2.25em;\r\n}\r\n\r\n/*css:/12345678/12395681*/</style></head><body><h1><a href="/00171000/00000000">Try the new stuff</a></h1><div><div><p>Bananas are delicious.</p></div><p><p>Bananas are delicious.</p></p><ol><li><p>Bananas are delicious.</p></li><li><p><p>Bananas are delicious.</p></p><div><p>Bananas are delicious.</p></div><p>Bananas are delicious.</p></li><li><p>Bananas are delicious.</p></li></ol><p>Bananas are delicious.</p><p>Bananas are delicious.</p><p><p>Bananas are delicious.</p></p><ul><li><p>Bananas are delicious.</p></li><li><p><p>Bananas are delicious.</p></p><div><p>Bananas are delicious.</p></div><p>Bananas are delicious.</p></li><li><p>Bananas are delicious.</p></li></ul><div><p>Bananas are delicious.</p></div></div><hr><form action="/00171000/00000000" method="POST"><h4>Edit</h4><label for="title">Title:</label><input name="title" placeholder="You can use the editor below to write some text..." size="44" type="text" value="Try the new stuff"><br><label for="text">Text:</label><br><textarea cols="58" name="text" placeholder="Write something..." rows="15">div:/00171000/00000001\r\np:/00171000/00000001\r\nol:/00171000/00000002\r\ntext:/00171000/00000001\r\ntext:/00171000/00000001\r\np:/00171000/00000001\r\nul:/00171000/00000002\r\ndiv:/00171000/00000001\r\ncss:/12345678/12395678</textarea><br><input name="fake_out_caching" type="hidden" value="2480090312"><input type="submit" value="post"></form></body></html>'
p111
sg34
g4
sbs(I16843009
I56
tp112
g0
(g10
g2
Ntp113
Rp114
(dp115
g14
(dp116
S'text'
p117
S'enstacken ;text:/01010102/00000002'
p118
sS'joy'
p119
(g0
(ceumi.joy.definitions
DefinitionWrapper
p120
g2
Ntp121
Rp122
(dp123
S'body'
p124
(g0
(g19
g2
Ntp125
Rp126
(dp127
g23
S'stack'
p128
sg25
ceumi.joy.library
stack_
p129
sb((g0
(g19
g2
Ntp130
Rp131
(dp132
g23
S'clear'
p133
sg25
ceumi.joy.library
clear
p134
sb(ttp135
(g0
(g19
g2
Ntp136
Rp137
(dp138
g23
S'dip'
p139
sg25
ceumi.joy.combinators
dip
p140
sb(ttp141
tp142
tp143
sS'__name__'
p144
S'enstacken'
p145
sg23
g145
sS'__doc__'
p146
S'stack [clear] dip'
p147
sb(ttp148
sS'title'
p149
S'enstacken'
p150
ssg32
S'<html><head><title>enstacken</title><style>body { background:#cfc; }</style></head><body><h1><a href="/01010101/00000038">enstacken</a></h1><div><p>enstacken ;<p><form action="/01010101/00000038" class="command" method="POST"><input name="fake_out_caching" type="hidden" value="782127247"><input name="command" type="hidden" value="/01010101/00000035"><input type="submit" value="clear"></form></p></p></div><hr><form action="/01010101/00000038" method="POST"><h4>Edit</h4><label for="title">Title:</label><input name="title" placeholder="You can use the editor below to write some text..." size="44" type="text" value="enstacken"><br><label for="text">Text:</label><br><textarea cols="58" name="text" placeholder="Write something..." rows="15">enstacken ;text:/01010102/00000002</textarea><br><input name="fake_out_caching" type="hidden" value="2737218329"><input type="submit" value="post"></form></body></html>'
p151
sg34
g4
sbs(I0
I524320
tp152
g0
(g10
g2
Ntp153
Rp154
(dp155
g14
(dp156
S'text'
p157
S'door:/00000000/00000000 \r\n \r\ncommand:/01010101/00000001command:/01010101/00000035command:/01010101/00000037command:/01010101/00000038command:/01010101/00000039command:/01010101/00000040\r\nstack:/00000000/00080020\r\nstackinto:/00000000/00080020\r\ncss:/12345678/00000023'
p158
sS'title'
p159
S'Control Panel Testing'
p160
sS'stack'
p161
(tsS'joy'
p162
((I2
(I6
(I2
(I2
(ttp163
tp164
tp165
tp166
((I5
(I1
(I5
(I5
(ttp167
tp168
tp169
tp170
((I6
(I4
(I5
(I6
(ttp171
tp172
tp173
tp174
((I3
(I1
(I4
(I3
(ttp175
tp176
tp177
tp178
(I3
(I15
(I1
(I0
((I2
(I1
(I1
(I6
(ttp179
tp180
tp181
tp182
((I16
((I6
(I3
(I2
(I2
(ttp183
tp184
tp185
tp186
(ttp187
tp188
(ttp189
tp190
tp191
tp192
tp193
tp194
tp195
tp196
tp197
tp198
ssg32
S'<html><head><title>Control Panel Testing</title><style>form.command { display: inline; padding: 0.5em; }</style></head><body><h1><a href="/00000000/00080020">Control Panel Testing</a></h1><div><a class="door-link" href="/00000000/00000000">[Eumirion]</a> \r\n \r\n<form action="/00000000/00080020" class="command" method="POST"><input name="fake_out_caching" type="hidden" value="135000161"><input name="command" type="hidden" value="/01010101/00000001"><input type="submit" value="01"></form><form action="/00000000/00080020" class="command" method="POST"><input name="fake_out_caching" type="hidden" value="292866667"><input name="command" type="hidden" value="/01010101/00000035"><input type="submit" value="clear"></form><form action="/00000000/00080020" class="command" method="POST"><input name="fake_out_caching" type="hidden" value="2533472580"><input name="command" type="hidden" value="/01010101/00000037"><input type="submit" value="first"></form><form action="/00000000/00080020" class="command" method="POST"><input name="fake_out_caching" type="hidden" value="1336545461"><input name="command" type="hidden" value="/01010101/00000038"><input type="submit" value="enstacken"></form><form action="/00000000/00080020" class="command" method="POST"><input name="fake_out_caching" type="hidden" value="268738036"><input name="command" type="hidden" value="/01010101/00000039"><input type="submit" value="4d6"></form><form action="/00000000/00080020" class="command" method="POST"><input name="fake_out_caching" type="hidden" value="1973591310"><input name="command" type="hidden" value="/01010101/00000040"><input type="submit" value="Roll four six-siders."></form>\r\n<ol><li>[2 6 2 2]</li><li>[5 1 5 5]</li><li>[6 4 5 6]</li><li>[3 1 4 3]</li><li>3</li><li>15</li><li>1</li><li>0</li><li>[2 1 1 6]</li><li>[16 [6 3 2 2]]</li></ol>\r\n[2 6 2 2][5 1 5 5][6 4 5 6][3 1 4 3]31510[2 1 1 6][16 [6 3 2 2]]\r\n</div><hr><form action="/00000000/00080020" method="POST"><h4>Edit</h4><label for="title">Title:</label><input name="title" placeholder="You can use the editor below to write some text..." size="44" type="text" value="Control Panel Testing"><br><label for="text">Text:</label><br><textarea cols="58" name="text" placeholder="Write something..." rows="15">door:/00000000/00000000 \r\n \r\ncommand:/01010101/00000001command:/01010101/00000035command:/01010101/00000037command:/01010101/00000038command:/01010101/00000039command:/01010101/00000040\r\nstack:/00000000/00080020\r\nstackinto:/00000000/00080020\r\ncss:/12345678/00000023</textarea><br><input name="fake_out_caching" type="hidden" value="1662173617"><input type="submit" value="post"></form></body></html>'
p199
sg34
g4
sbs(I16843009
I55
tp200
g0
(g10
g2
Ntp201
Rp202
(dp203
g14
(dp204
S'text'
p205
S'first ;text:/01010102/00000002'
p206
sS'joy'
p207
(g0
(g120
g2
Ntp208
Rp209
(dp210
g124
(g0
(g19
g2
Ntp211
Rp212
(dp213
g23
S'uncons'
p214
sg25
ceumi.joy.library
uncons
p215
sb(g0
(g19
g2
Ntp216
Rp217
(dp218
g23
S'pop'
p219
sg25
ceumi.joy.library
pop
p220
sb(ttp221
tp222
sg144
S'first'
p223
sg23
g223
sg146
S'# This is ALSO one of the most basic commands.\n# It provides the first item of a sequence...\n'
p224
sb(ttp225
sS'title'
p226
S'first'
p227
ssg32
S'<html><head><title>first</title><style>body { background:#cfc; }</style></head><body><h1><a href="/01010101/00000037">first</a></h1><div><p>first ;<p><form action="/01010101/00000037" class="command" method="POST"><input name="fake_out_caching" type="hidden" value="2656798380"><input name="command" type="hidden" value="/01010101/00000035"><input type="submit" value="clear"></form></p></p></div><hr><form action="/01010101/00000037" method="POST"><h4>Edit</h4><label for="title">Title:</label><input name="title" placeholder="You can use the editor below to write some text..." size="44" type="text" value="first"><br><label for="text">Text:</label><br><textarea cols="58" name="text" placeholder="Write something..." rows="15">first ;text:/01010102/00000002</textarea><br><input name="fake_out_caching" type="hidden" value="2758267846"><input type="submit" value="post"></form></body></html>'
p228
sg34
g4
sbs(I0
I0
tp229
g0
(g10
g2
Ntp230
Rp231
(dp232
g14
(dp233
S'text'
p234
S'Home\r\nClick here to parametrically create a solar system. /77700000/00000000\r\n\r\nbutton:/01010101/00000033 turns into a form with one visible button that POSTs to this URL with the link of \'times\' as an arg.  That causes the server to evaluate the Joy expression in the text of \'times\' in the context of...  this page?  the server?  the "toplevel" of this page?  I dunno yet..\r\n\r\n has:/00000000/00000019 inset:/00000000/00000021 /00000000/00000003\r\n\r\ndoor:/00000000/00000020\r\n\r\ncss:/12345678/12395679'
p235
sS'title'
p236
S'Eumirion'
p237
ssg32
S'<html><head><title>Eumirion</title><style>.door-link { border: 1px solid black; background: tan; }\r\n.door-link:hover { border: 1px solid orange; background: black; color: tan; }\r\n/*css:/12345678/12395681*/</style></head><body><h1><a href="/00000000/00000000">Eumirion</a></h1><div><p>Home\r\nClick here to parametrically create a solar system. <a href="/77700000/00000000">Parametric Creation Of Content, Including Planets</a></p><p>unknown action "button:"<a href="/01010101/00000033">times</a> turns into a form with one visible button that POSTs to this URL with the link of \'times\' as an arg.  That causes the server to evaluate the Joy expression in the text of \'times\' in the context of...  this page?  the server?  the "toplevel" of this page?  I dunno yet..</p><p> unknown action "has:"<a href="/00000000/00000019">Excelsior</a> unknown action "inset:"<a href="/00000000/00000021">Thronestar</a> <a href="/00000000/00000003">Is This An Index?</a></p><p><a class="door-link" href="/00000000/00000020">[This Is The Outer Limits]</a></p><p></p></div><hr><form action="/00000000/00000000" method="POST"><h4>Edit</h4><label for="title">Title:</label><input name="title" placeholder="You can use the editor below to write some text..." size="44" type="text" value="Eumirion"><br><label for="text">Text:</label><br><textarea cols="58" name="text" placeholder="Write something..." rows="15">Home\r\nClick here to parametrically create a solar system. /77700000/00000000\r\n\r\nbutton:/01010101/00000033 turns into a form with one visible button that POSTs to this URL with the link of \'times\' as an arg.  That causes the server to evaluate the Joy expression in the text of \'times\' in the context of...  this page?  the server?  the "toplevel" of this page?  I dunno yet..\r\n\r\n has:/00000000/00000019 inset:/00000000/00000021 /00000000/00000003\r\n\r\ndoor:/00000000/00000020\r\n\r\ncss:/12345678/12395679</textarea><br><input name="fake_out_caching" type="hidden" value="640622236"><input type="submit" value="post"></form></body></html>'
p238
sg34
g4
sbs(I305419896
I305747577
tp239
g0
(g10
g2
Ntp240
Rp241
(dp242
g14
(dp243
S'text'
p244
S'.door-link { border: 1px solid black; background: tan; }\r\n.door-link:hover { border: 1px solid orange; background: black; color: tan; }\r\n/*css:/12345678/12395681*/'
p245
sS'title'
p246
S'Door Css'
p247
ssg32
S'<html><head><title>Door Css</title><style>p {\r\n  margin: 0px;\r\n}\r\n \r\ndiv { background: #ffa; }\r\n\r\n/*css:/12345678/12395681*/</style></head><body><h1><a href="/12345678/12395679">Door Css</a></h1><div><p>.door-link { border: 1px solid black; background: tan; }</p><p>.door-link:hover { border: 1px solid orange; background: black; color: tan; }</p><p>/**/</p></div><hr><form action="/12345678/12395679" method="POST"><h4>Edit</h4><label for="title">Title:</label><input name="title" placeholder="No Title" size="44" type="text" value="Door Css"><br><label for="text">Text:</label><br><textarea cols="58" name="text" placeholder="Write something..." rows="15">.door-link { border: 1px solid black; background: tan; }\r\n.door-link:hover { border: 1px solid orange; background: black; color: tan; }\r\n/*css:/12345678/12395681*/</textarea><br><input name="fake_out_caching" type="hidden" value="2507020139"><input type="submit" value="post"></form></body></html>'
p248
sg34
g4
sbs(I16843009
I51
tp249
g0
(g10
g2
Ntp250
Rp251
(dp252
g14
(dp253
g60
S'[-- dip] cons [swap] infra [0 >] swap while pop\r\n\r\nDo something n times.\r\n\r\ncss:/12345678/01010101'
p254
sg62
S'times'
p255
ssg32
S'<html><head><title>times</title><style>body { background:#cfc; }</style></head><body><h1><a href="/01010101/00000033">times</a></h1><div><p>[-- dip] cons [swap] infra [0 &gt;] swap while pop</p><p></p><p>Do something n times.</p><p></p><p></p></div><hr><form action="/01010101/00000033" method="POST"><h4>Edit</h4><label for="title">Title:</label><input name="title" placeholder="No Title" size="44" type="text" value="times"><br><label for="text">Text:</label><br><textarea cols="58" name="text" placeholder="Write something..." rows="15">[-- dip] cons [swap] infra [0 &gt;] swap while pop\r\n\r\nDo something n times.\r\n\r\ncss:/12345678/01010101</textarea><br><input name="fake_out_caching" type="hidden" value="471531137"><input type="submit" value="post"></form></body></html>'
p256
sg34
g4
sbs(I305419896
I305747586
tp257
g0
(g10
g2
Ntp258
Rp259
(dp260
g14
(dp261
S'text'
p262
S'a-css-class'
p263
sS'title'
p264
S'A CSS class'
p265
ssg32
S'<html><head><title>A CSS class</title></head><body><h1><a href="/12345678/12395682">A CSS class</a></h1><div>a-css-class</div><hr><form action="/12345678/12395682" method="POST"><h4>Edit</h4><label for="title">Title:</label><input name="title" placeholder="You can use the editor below to write some text..." size="44" type="text" value="A CSS class"><br><label for="text">Text:</label><br><textarea cols="58" name="text" placeholder="Write something..." rows="15">a-css-class</textarea><br><input name="fake_out_caching" type="hidden" value="2322844294"><input type="submit" value="post"></form></body></html>'
p266
sg34
g4
sbs(I16843010
I2
tp267
g0
(g10
g2
Ntp268
Rp269
(dp270
g14
(dp271
S'text'
p272
S'command:/01010101/00000035css:/12345678/01010101'
p273
sS'title'
p274
S'Template for commands.'
p275
ssg32
S'<html><head><title>Template for commands.</title><style>body { background:#cfc; }</style></head><body><h1><a href="/01010102/00000002">Template for commands.</a></h1><div><p><form action="/01010102/00000002" class="command" method="POST"><input name="fake_out_caching" type="hidden" value="3629048052"><input name="command" type="hidden" value="/01010101/00000035"><input type="submit" value="clear"></form></p></div><hr><form action="/01010102/00000002" method="POST"><h4>Edit</h4><label for="title">Title:</label><input name="title" placeholder="You can use the editor below to write some text..." size="44" type="text" value="Template for commands."><br><label for="text">Text:</label><br><textarea cols="58" name="text" placeholder="Write something..." rows="15">command:/01010101/00000035css:/12345678/01010101</textarea><br><input name="fake_out_caching" type="hidden" value="1836385450"><input type="submit" value="post"></form></body></html>'
p276
sg34
g4
sbs(I0
I3405691582
tp277
g0
(g10
g2
Ntp278
Rp279
(dp280
g14
(dp281
S'text'
p282
S'very young red dragon grab helpless goblin as guide through the human world'
p283
sS'title'
p284
S'warrior dark elf'
p285
ssg32
S'<html><head><title>warrior dark elf</title></head><body><h1><a href="/00000000/cafebabe">warrior dark elf</a></h1><div><p>very young red dragon grab helpless goblin as guide through the human world</p></div><hr><form action="/00000000/cafebabe" method="POST"><h4>Edit</h4><label for="title">Title:</label><input name="title" placeholder="No Title" size="44" type="text" value="warrior dark elf"><br><label for="text">Text:</label><br><textarea cols="58" name="text" placeholder="Write something..." rows="15">very young red dragon grab helpless goblin as guide through the human world</textarea><br><input name="fake_out_caching" type="hidden" value="1433741694"><input type="submit" value="post"></form></body></html>'
p286
sg34
g4
sbs(I305419896
I305747584
tp287
g0
(g10
g2
Ntp288
Rp289
(dp290
g14
(dp291
g40
S''
p292
sg42
g292
ssg32
S'<html><head><title>/12345678/12395680</title></head><body><h1><a href="/12345678/12395680">No Title</a></h1><div><p class="default-text">You can use the editor below to write some text...</p></div><hr><form action="/12345678/12395680" method="POST"><h4>Edit</h4><label for="title">Title:</label><input name="title" placeholder="No Title" size="44" type="text" value=""><br><label for="text">Text:</label><br><textarea cols="58" name="text" placeholder="Write something..." rows="15"></textarea><br><input name="fake_out_caching" type="hidden" value="681643869"><input type="submit" value="post"></form></body></html>'
p293
sg34
g4
sbs(I0
I3
tp294
g0
(g10
g2
Ntp295
Rp296
(dp297
g14
(dp298
S'text'
p299
S'index:/00000000/cafebabe'
p300
sS'title'
p301
S'Is This An Index?'
p302
ssg32
S'<html><head><title>Is This An Index?</title></head><body><h1><a href="/00000000/00000003">Is This An Index?</a></h1><div><ol><li><a href="/00000000/00000000">Eumirion</a><ol><li><a href="/00000000/00000003">Is This An Index?</a></li><li><a href="/00000000/00000019">Excelsior</a></li><li><a href="/00000000/00000020">This Is The Outer Limits</a></li><li><a href="/00000000/00000021">Thronestar</a></li><li><a href="/00000000/00080020">Control Panel Testing</a></li><li><a href="/00000000/cafebabe">warrior dark elf</a></li></ol></li><li><a href="/00171000/00000000">Try the new stuff</a><ol><li><a href="/00171000/00000001">Bananas</a></li><li><a href="/00171000/00000002">A List</a></li><li><a href="/00171000/00000003">Some other junk.</a></li><li><a href="/00171000/00000004">Bananas with class!</a></li></ol></li><li><a href="/01010101/00000000">Joy Code</a><ol><li><a href="/01010101/00000001">01</a></li><li><a href="/01010101/00000033">times</a></li><li><a href="/01010101/00000035">clear</a></li><li><a href="/01010101/00000037">first</a></li><li><a href="/01010101/00000038">enstacken</a></li><li><a href="/01010101/00000039">4d6</a></li><li><a href="/01010101/00000040">Roll four six-siders.</a></li></ol></li><li><a href="/01010102/00000000">jump to /01010102/00000000</a><ol><li><a href="/01010102/00000002">Template for commands.</a></li></ol></li><li><a href="/12344678/00000000">And then...</a><ol></ol></li><li><a href="/12345678/00000000">Csses</a><ol><li><a href="/12345678/00000023">command form CSS</a></li><li><a href="/12345678/01010101">Joy Css</a></li><li><a href="/12345678/12345678">Brobignagian</a></li><li><a href="/12345678/12395678">Some CSS</a></li><li><a href="/12345678/12395679">Door Css</a></li><li><a href="/12345678/12395680">jump to /12345678/12395680</a></li><li><a href="/12345678/12395681">CSS CSS</a></li><li><a href="/12345678/12395682">A CSS class</a></li></ol></li><li><a href="/72300000/00000000">Whoops</a><ol></ol></li><li><a href="/77700000/00000000">Parametric Creation Of Content, Including Planets</a><ol></ol></li><li><a href="/88880000/00000000">Spaceships</a><ol><li><a href="/88880000/00000001">The TARDIS</a></li></ol></li></ol></div><hr><form action="/00000000/00000003" method="POST"><h4>Edit</h4><label for="title">Title:</label><input name="title" placeholder="You can use the editor below to write some text..." size="44" type="text" value="Is This An Index?"><br><label for="text">Text:</label><br><textarea cols="58" name="text" placeholder="Write something..." rows="15">index:/00000000/cafebabe</textarea><br><input name="fake_out_caching" type="hidden" value="4183174668"><input type="submit" value="post"></form></body></html>'
p303
sg34
g4
sbs(I16843009
I1
tp304
g0
(g10
g2
Ntp305
Rp306
(dp307
g14
(dp308
S'text'
p309
S'0 1  ;text:/01010102/00000002'
p310
sS'title'
p311
S'01'
p312
sS'joy'
p313
(I0
(I1
(ttp314
tp315
ssg32
S'<html><head><title>01</title><style>body { background:#cfc; }</style></head><body><h1><a href="/01010101/00000001">01</a></h1><div><p>0 1  ;<p><form action="/01010101/00000001" class="command" method="POST"><input name="fake_out_caching" type="hidden" value="41567031"><input name="command" type="hidden" value="/01010101/00000035"><input type="submit" value="clear"></form></p></p></div><hr><form action="/01010101/00000001" method="POST"><h4>Edit</h4><label for="title">Title:</label><input name="title" placeholder="You can use the editor below to write some text..." size="44" type="text" value="01"><br><label for="text">Text:</label><br><textarea cols="58" name="text" placeholder="Write something..." rows="15">0 1  ;text:/01010102/00000002</textarea><br><input name="fake_out_caching" type="hidden" value="2537374234"><input type="submit" value="post"></form></body></html>'
p316
sg34
g4
sbs(I0
I33
tp317
g0
(g10
g2
Ntp318
Rp319
(dp320
g14
(dp321
S'text'
p322
S'The massive black hole at the center of each galaxy is called the "Thronestar"..  Time slows down near the event horizon of such a titanic mass and galactic civilizations seek proximity to it as a means of prolonging existance.\r\ntext:/00000000/00080020\r\ncss:/12345678/12395678\r\nstack:/00000000/00000021'
p323
sS'stack'
p324
(tsS'title'
p325
S'Thronestar'
p326
ssg32
S'<html><head><title>Thronestar</title><style>form.command { display: inline; padding: 0.5em; }</style><style>@import url(http://fonts.googleapis.com/css?family=EB+Garamond);\r\n\r\nbody {\r\n  background: black;\r\n  color: #00ff00;\r\n  font-family: \'EB Garamond\', serif;\r\n  font-size: 133%;\r\n}\r\n\r\ndiv {\r\n  border: 0.1em solid;\r\n  border-radius: 3em;\r\n  padding: 1.25em 2.25em 1.25em 2.25em;\r\n}\r\n\r\n/*css:/12345678/12395681*/</style></head><body><h1><a href="/00000000/00000021">Thronestar</a></h1><div><p>The massive black hole at the center of each galaxy is called the "Thronestar"..  Time slows down near the event horizon of such a titanic mass and galactic civilizations seek proximity to it as a means of prolonging existance.</p><p><p><form action="/00000000/00000021" class="command" method="POST"><input name="fake_out_caching" type="hidden" value="283296855"><input name="command" type="hidden" value="/01010101/00000001"><input type="submit" value="01"></form> <form action="/00000000/00000021" class="command" method="POST"><input name="fake_out_caching" type="hidden" value="2146222775"><input name="command" type="hidden" value="/01010101/00000035"><input type="submit" value="clear"></form> <form action="/00000000/00000021" class="command" method="POST"><input name="fake_out_caching" type="hidden" value="1146893214"><input name="command" type="hidden" value="/01010101/00000037"><input type="submit" value="first"></form> <form action="/00000000/00000021" class="command" method="POST"><input name="fake_out_caching" type="hidden" value="518449896"><input name="command" type="hidden" value="/01010101/00000038"><input type="submit" value="enstacken"></form></p><p><ol></ol></p><p></p><p></p></p><p></p><p><ol></ol></p></div><hr><form action="/00000000/00000021" method="POST"><h4>Edit</h4><label for="title">Title:</label><input name="title" placeholder="You can use the editor below to write some text..." size="44" type="text" value="Thronestar"><br><label for="text">Text:</label><br><textarea cols="58" name="text" placeholder="Write something..." rows="15">The massive black hole at the center of each galaxy is called the "Thronestar"..  Time slows down near the event horizon of such a titanic mass and galactic civilizations seek proximity to it as a means of prolonging existance.\r\ntext:/00000000/00080020\r\ncss:/12345678/12395678\r\nstack:/00000000/00000021</textarea><br><input name="fake_out_caching" type="hidden" value="3539956530"><input type="submit" value="post"></form></body></html>'
p327
sg34
g4
sbs(I1511424
I1
tp328
g0
(g10
g2
Ntp329
Rp330
(dp331
g14
(dp332
g107
S'Bananas are delicious.\r\n'
p333
sg109
S'Bananas'
p334
ssg32
S'<html><head><title>Bananas</title></head><body><h1><a href="/00171000/00000001">Bananas</a></h1><div>Bananas are delicious.\r\n</div><hr><form action="/00171000/00000001" method="POST"><h4>Edit</h4><label for="title">Title:</label><input name="title" placeholder="You can use the editor below to write some text..." size="44" type="text" value="Bananas"><br><label for="text">Text:</label><br><textarea cols="58" name="text" placeholder="Write something..." rows="15">Bananas are delicious.\r\n</textarea><br><input name="fake_out_caching" type="hidden" value="815412886"><input type="submit" value="post"></form></body></html>'
p335
sg34
g4
sbs(I2290614272
I0
tp336
g0
(g10
g2
Ntp337
Rp338
(dp339
g14
(dp340
S'text'
p341
S'index:/88880000/00000000'
p342
sS'title'
p343
S'Spaceships'
p344
ssg32
S'<html><head><title>Spaceships</title></head><body><h1><a href="/88880000/00000000">Spaceships</a></h1><div><p><ol><li><a href="/88880000/00000000">Spaceships</a><ol><li><a href="/88880000/00000001">The TARDIS</a></li></ol></li></ol></p></div><hr><form action="/88880000/00000000" method="POST"><h4>Edit</h4><label for="title">Title:</label><input name="title" placeholder="No Title" size="44" type="text" value="Spaceships"><br><label for="text">Text:</label><br><textarea cols="88" name="text" placeholder="Write something..." rows="5">index:/88880000/00000000</textarea><br><input name="fake_out_caching" type="hidden" value="2859869683"><input type="submit" value="post"></form></body></html>'
p345
sg34
g4
sbs(I0
I25
tp346
g0
(g10
g2
Ntp347
Rp348
(dp349
g14
(dp350
g234
S'A spaceship.\r\n\r\nDocked in orbit around /00000000/00000000.'
p351
sg236
S'Excelsior'
p352
ssg32
S'<html><head><title>Excelsior</title></head><body><h1><a href="/00000000/00000019">Excelsior</a></h1><div><p>A spaceship.</p><p></p><p>Docked in orbit around <a href="/00000000/00000000">Eumirion</a>.</p></div><hr><form action="/00000000/00000019" method="POST"><h4>Edit</h4><label for="title">Title:</label><input name="title" placeholder="No Title" size="44" type="text" value="Excelsior"><br><label for="text">Text:</label><br><textarea cols="88" name="text" placeholder="Write something..." rows="5">A spaceship.\r\n\r\nDocked in orbit around /00000000/00000000.</textarea><br><input name="fake_out_caching" type="hidden" value="234453159"><input type="submit" value="post"></form></body></html>'
p353
sg34
g4
sbs(I1511424
I4
tp354
g0
(g10
g2
Ntp355
Rp356
(dp357
g14
(dp358
S'text'
p359
S'cssclass:/12345678/12395682\r\ntext:/00171000/00000001'
p360
sS'title'
p361
S'Bananas with class!'
p362
ssg32
S'<html><head><title>Bananas with class!</title></head><body><h1><a href="/00171000/00000004">Bananas with class!</a></h1><div class="a-css-class">\r\nBananas are delicious.\r\n</div><hr><form action="/00171000/00000004" method="POST"><h4>Edit</h4><label for="title">Title:</label><input name="title" placeholder="You can use the editor below to write some text..." size="44" type="text" value="Bananas with class!"><br><label for="text">Text:</label><br><textarea cols="58" name="text" placeholder="Write something..." rows="15">cssclass:/12345678/12395682\r\ntext:/00171000/00000001</textarea><br><input name="fake_out_caching" type="hidden" value="3929778357"><input type="submit" value="post"></form></body></html>'
p363
sg34
g4
sbs(I1511424
I3
tp364
g0
(g10
g2
Ntp365
Rp366
(dp367
g14
(dp368
S'text'
p369
S'p:/00171000/00000001\r\ndiv:/00171000/00000001\r\ndiv:/00171000/00000004\r\ntext:/00171000/00000001'
p370
sS'title'
p371
S'Some other junk.'
p372
ssg32
S'<html><head><title>Some other junk.</title></head><body><h1><a href="/00171000/00000003">Some other junk.</a></h1><div><p>Bananas are delicious.\r\n</p>\r\n<div>Bananas are delicious.\r\n</div>\r\n<div class="a-css-class">\r\nBananas are delicious.\r\n</div>\r\nBananas are delicious.\r\n</div><hr><form action="/00171000/00000003" method="POST"><h4>Edit</h4><label for="title">Title:</label><input name="title" placeholder="You can use the editor below to write some text..." size="44" type="text" value="Some other junk."><br><label for="text">Text:</label><br><textarea cols="58" name="text" placeholder="Write something..." rows="15">p:/00171000/00000001\r\ndiv:/00171000/00000001\r\ndiv:/00171000/00000004\r\ntext:/00171000/00000001</textarea><br><input name="fake_out_caching" type="hidden" value="585565672"><input type="submit" value="post"></form></body></html>'
p373
sg34
g4
sbs(I0
I32
tp374
g0
(g10
g2
Ntp375
Rp376
(dp377
g14
(dp378
g234
S"Not really, that's a TV show.\r\njump to /12345678/12345678\r\nbasil\r\ntext:/12345678/12345678\r\n"
p379
sg236
S'This Is The Outer Limits'
p380
ssg32
S'<html><head><title>This Is The Outer Limits</title><style>@import url(http://fonts.googleapis.com/css?family=EB+Garamond);\r\n\r\nbody {\r\n  background: black;\r\n  color: #00ff00;\r\n  font-family: \'EB Garamond\', serif;\r\n  font-size: 133%;\r\n}\r\n\r\ndiv {\r\n  border: 0.1em solid;\r\n  border-radius: 3em;\r\n  padding: 1.25em 2.25em 1.25em 2.25em;\r\n}\r\n\r\n/*css:/12345678/12395681*/</style><style>.door-link { border: 1px solid black; background: tan; }\r\n.door-link:hover { border: 1px solid orange; background: black; color: tan; }\r\n/*css:/12345678/12395681*/</style></head><body><h1><a href="/00000000/00000020">This Is The Outer Limits</a></h1><div><p>Not really, that\'s a TV show.</p><p>jump to <a href="/12345678/12345678">Brobignagian</a></p><p>basil</p><p><p>Very large and slightly awkward.</p><p></p><p></p><p></p><p><a href="/00000000/00000000">Eumirion</a></p><p></p><p><a class="door-link" href="/00000000/00000020">[This Is The Outer Limits]</a></p><p></p><p></p></p></div><hr><form action="/00000000/00000020" method="POST"><h4>Edit</h4><label for="title">Title:</label><input name="title" placeholder="You can use the editor below to write some text..." size="44" type="text" value="This Is The Outer Limits"><br><label for="text">Text:</label><br><textarea cols="58" name="text" placeholder="Write something..." rows="15">Not really, that\'s a TV show.\r\njump to /12345678/12345678\r\nbasil\r\ntext:/12345678/12345678\r\n</textarea><br><input name="fake_out_caching" type="hidden" value="836457097"><input type="submit" value="post"></form></body></html>'
p381
sg34
g4
sbs(I2003828736
I0
tp382
g0
(g10
g2
Ntp383
Rp384
(dp385
g14
(dp386
S'text'
p387
S'I want to provide tools that can be used in-server to parametrically create things like star systems, species, artifacts and phenomenon, etc... using e.g. 2d6 5d12 1d20 &c. D&D-style "dice" and charts.  Maybe pull content from fan wikis of sci-fi shows and books etc...\r\n\r\ncommand:/01010101/00000040command:/01010101/00000035\r\n\r\ncss:/12345678/12395678css:/12345678/00000023\r\nParametric dice are easy to make, along with tables and ways to sample from the tables to build new content and load it into the server.\r\nstack:/77700000/00000000'
p388
sS'title'
p389
S'Parametric Creation Of Content, Including Planets'
p390
sS'joy'
p391
((I5
(I6
(I4
(I1
(ttp392
tp393
tp394
tp395
((I2
(I6
(I3
(I4
(ttp396
tp397
tp398
tp399
(ttp400
tp401
ssg32
S'<html><head><title>Parametric Creation Of Content, Including Planets</title><style>@import url(http://fonts.googleapis.com/css?family=EB+Garamond);\r\n\r\nbody {\r\n  background: black;\r\n  color: #00ff00;\r\n  font-family: \'EB Garamond\', serif;\r\n  font-size: 133%;\r\n}\r\n\r\ndiv {\r\n  border: 0.1em solid;\r\n  border-radius: 3em;\r\n  padding: 1.25em 2.25em 1.25em 2.25em;\r\n}\r\n\r\n/*css:/12345678/12395681*/</style><style>form.command { display: inline; padding: 0.5em; }</style></head><body><h1><a href="/77700000/00000000">Parametric Creation Of Content, Including Planets</a></h1><div><p>I want to provide tools that can be used in-server to parametrically create things like star systems, species, artifacts and phenomenon, etc... using e.g. 2d6 5d12 1d20 &amp;c. D&amp;D-style "dice" and charts.  Maybe pull content from fan wikis of sci-fi shows and books etc...</p><p><form action="/77700000/00000000" class="command" method="POST"><input name="fake_out_caching" type="hidden" value="1719254710"><input name="command" type="hidden" value="/01010101/00000040"><input type="submit" value="Roll four six-siders."></form><form action="/77700000/00000000" class="command" method="POST"><input name="fake_out_caching" type="hidden" value="2244210684"><input name="command" type="hidden" value="/01010101/00000035"><input type="submit" value="clear"></form></p><p>\r\nParametric dice are easy to make, along with tables and ways to sample from the tables to build new content and load it into the server.\r\n<ol><li>[5 6 4 1]</li><li>[2 6 3 4]</li></ol></p></div><hr><form action="/77700000/00000000" method="POST"><h4>Edit</h4><label for="title">Title:</label><input name="title" placeholder="You can use the editor below to write some text..." size="44" type="text" value="Parametric Creation Of Content, Including Planets"><br><label for="text">Text:</label><br><textarea cols="58" name="text" placeholder="Write something..." rows="15">I want to provide tools that can be used in-server to parametrically create things like star systems, species, artifacts and phenomenon, etc... using e.g. 2d6 5d12 1d20 &amp;c. D&amp;D-style "dice" and charts.  Maybe pull content from fan wikis of sci-fi shows and books etc...\r\n\r\ncommand:/01010101/00000040command:/01010101/00000035\r\n\r\ncss:/12345678/12395678css:/12345678/00000023\r\nParametric dice are easy to make, along with tables and ways to sample from the tables to build new content and load it into the server.\r\nstack:/77700000/00000000</textarea><br><input name="fake_out_caching" type="hidden" value="2205129797"><input type="submit" value="post"></form></body></html>'
p402
sg34
g4
sbs(I16843009
I0
tp403
g0
(g10
g2
Ntp404
Rp405
(dp406
g14
(dp407
g60
S'a b [c d] [e f] while\r\ncss:/12345678/01010101'
p408
sg62
S'Joy Code'
p409
ssg32
S'<html><head><title>Joy Code</title><style>body { background:#cfc; }</style></head><body><h1><a href="/01010101/00000000">Joy Code</a></h1><div><p>a b [c d] [e f] while</p><p></p></div><hr><form action="/01010101/00000000" method="POST"><h4>Edit</h4><label for="title">Title:</label><input name="title" placeholder="No Title" size="44" type="text" value="Joy Code"><br><label for="text">Text:</label><br><textarea cols="88" name="text" placeholder="Write something..." rows="5">a b [c d] [e f] while\r\ncss:/12345678/01010101</textarea><br><input name="fake_out_caching" type="hidden" value="1219654015"><input type="submit" value="post"></form></body></html>'
p410
sg34
g4
sbs(I2290614272
I1
tp411
g0
(g10
g2
Ntp412
Rp413
(dp414
g14
(dp415
g341
S'Technically not a spaceship.'
p416
sg343
S'The TARDIS'
p417
ssg32
S'<html><head><title>The Tardis</title></head><body><h1><a href="/88880000/00000001">The Tardis</a></h1><div><p>Technically not a spaceship.</p></div><hr><form action="/88880000/00000001" method="POST"><h4>Edit</h4><label for="title">Title:</label><input name="title" placeholder="No Title" size="44" type="text" value="The Tardis"><br><label for="text">Text:</label><br><textarea cols="88" name="text" placeholder="Write something..." rows="5">Technically not a spaceship.</textarea><br><input name="fake_out_caching" type="hidden" value="60472379"><input type="submit" value="post"></form></body></html>'
p418
sg34
g4
sbs(I16843009
I53
tp419
g0
(g10
g2
Ntp420
Rp421
(dp422
g14
(dp423
g282
S'clear ;joy:/01010101/00000035text:/01010102/00000002'
p424
sg284
S'clear'
p425
sg313
(g0
(g19
g2
Ntp426
Rp427
(dp428
g23
S'clear'
p429
sg25
g134
sb(ttp430
ssg32
S'<html><head><title>clear</title><style>body { background:#cfc; }</style></head><body><h1><a href="/01010101/00000035">clear</a></h1><div>clear ;<form action="/01010101/00000035" class="command" method="POST"><input name="fake_out_caching" type="hidden" value="3164265784"><input name="command" type="hidden" value="/01010101/00000035"><input type="submit" value="clear"></form></div><hr><form action="/01010101/00000035" method="POST"><h4>Edit</h4><label for="title">Title:</label><input name="title" placeholder="You can use the editor below to write some text..." size="44" type="text" value="clear"><br><label for="text">Text:</label><br><textarea cols="58" name="text" placeholder="Write something..." rows="15">clear ;joy:/01010101/00000035text:/01010102/00000002</textarea><br><input name="fake_out_caching" type="hidden" value="883333796"><input type="submit" value="post"></form></body></html>'
p431
sg34
g4
sbs(I305415800
I0
tp432
g0
(g10
g2
Ntp433
Rp434
(dp435
g14
(dp436
S'text'
p437
S'You add zee content!'
p438
sS'title'
p439
S'And then...'
p440
ssg32
S'<html><head><title>And then...</title></head><body><h1><a href="/12344678/00000000">And then...</a></h1><div><p>You add zee content!</p></div><hr><form action="/12344678/00000000" method="POST"><h4>Edit</h4><label for="title">Title:</label><input name="title" placeholder="You can use the editor below to write some text..." size="44" type="text" value="And then..."><br><label for="text">Text:</label><br><textarea cols="58" name="text" placeholder="Write something..." rows="15">You add zee content!</textarea><br><input name="fake_out_caching" type="hidden" value="2346855653"><input type="submit" value="post"></form></body></html>'
p441
sg34
g4
sbs(I305419896
I305747576
tp442
g0
(g10
g2
Ntp443
Rp444
(dp445
g14
(dp446
S'text'
p447
S"@import url(http://fonts.googleapis.com/css?family=EB+Garamond);\r\n\r\nbody {\r\n  background: black;\r\n  color: #00ff00;\r\n  font-family: 'EB Garamond', serif;\r\n  font-size: 133%;\r\n}\r\n\r\ndiv {\r\n  border: 0.1em solid;\r\n  border-radius: 3em;\r\n  padding: 1.25em 2.25em 1.25em 2.25em;\r\n}\r\n\r\n/*css:/12345678/12395681*/"
p448
sS'title'
p449
S'Some CSS'
p450
ssg32
S'<html><head><title>Some CSS</title><style>p {\r\n  margin: 0px;\r\n}\r\n \r\ndiv { background: #ffa; }\r\n\r\n/*css:/12345678/12395681*/</style></head><body><h1><a href="/12345678/12395678">Some CSS</a></h1><div><p>@import url(http://fonts.googleapis.com/css?family=EB+Garamond);</p><p></p><p>body {</p><p>  background: black;</p><p>  color: #00ff00;</p><p>  font-family: \'EB Garamond\', serif;</p><p>  font-size: 133%;</p><p>}</p><p></p><p>div {</p><p>  border: 0.1em solid;</p><p>  border-radius: 3em;</p><p>  padding: 1.25em 2.25em 1.25em 2.25em;</p><p>}</p><p></p><p>/**/</p></div><hr><form action="/12345678/12395678" method="POST"><h4>Edit</h4><label for="title">Title:</label><input name="title" placeholder="No Title" size="44" type="text" value="Some CSS"><br><label for="text">Text:</label><br><textarea cols="58" name="text" placeholder="Write something..." rows="15">@import url(http://fonts.googleapis.com/css?family=EB+Garamond);\r\n\r\nbody {\r\n  background: black;\r\n  color: #00ff00;\r\n  font-family: \'EB Garamond\', serif;\r\n  font-size: 133%;\r\n}\r\n\r\ndiv {\r\n  border: 0.1em solid;\r\n  border-radius: 3em;\r\n  padding: 1.25em 2.25em 1.25em 2.25em;\r\n}\r\n\r\n/*css:/12345678/12395681*/</textarea><br><input name="fake_out_caching" type="hidden" value="1459831538"><input type="submit" value="post"></form></body></html>'
p451
sg34
g4
sbs(I305419896
I35
tp452
g0
(g10
g2
Ntp453
Rp454
(dp455
g14
(dp456
g282
S'form.command { display: inline; padding: 0.5em; }'
p457
sg284
S'command form CSS'
p458
ssg32
S'<html><head><title>command form CSS</title></head><body><h1><a href="/12345678/00000023">command form CSS</a></h1><div><p>form.command { display: inline; padding: 0.5em; }</p></div><hr><form action="/12345678/00000023" method="POST"><h4>Edit</h4><label for="title">Title:</label><input name="title" placeholder="No Title" size="44" type="text" value="command form CSS"><br><label for="text">Text:</label><br><textarea cols="58" name="text" placeholder="Write something..." rows="15">form.command { display: inline; padding: 0.5em; }</textarea><br><input name="fake_out_caching" type="hidden" value="3229924183"><input type="submit" value="post"></form></body></html>'
p459
sg34
g4
sbs(I305419896
I305419896
tp460
g0
(g10
g2
Ntp461
Rp462
(dp463
g14
(dp464
S'text'
p465
S'Very large and slightly awkward.\r\ncss:/12345678/12395678\r\n\r\n\r\n/00000000/00000000\r\n\r\ndoor:/00000000/00000020\r\n\r\ncss:/12345678/12395679'
p466
sS'title'
p467
S'Brobignagian'
p468
ssg32
S'<html><head><title>Brobignagian</title><style>@import url(http://fonts.googleapis.com/css?family=EB+Garamond);\r\n\r\nbody {\r\n  background: black;\r\n  color: #00ff00;\r\n  font-family: \'EB Garamond\', serif;\r\n  font-size: 133%;\r\n}\r\n\r\ndiv {\r\n  border: 0.1em solid;\r\n  border-radius: 3em;\r\n  padding: 1.25em 2.25em 1.25em 2.25em;\r\n}\r\n\r\n/*css:/12345678/12395681*/</style><style>.door-link { border: 1px solid black; background: tan; }\r\n.door-link:hover { border: 1px solid orange; background: black; color: tan; }\r\n/*css:/12345678/12395681*/</style></head><body><h1><a href="/12345678/12345678">Brobignagian</a></h1><div><p>Very large and slightly awkward.\r\n</p><p>\r\n<a href="/00000000/00000000">Eumirion</a></p><p><a class="door-link" href="/00000000/00000020">[This Is The Outer Limits]</a></p><p></p></div><hr><form action="/12345678/12345678" method="POST"><h4>Edit</h4><label for="title">Title:</label><input name="title" placeholder="You can use the editor below to write some text..." size="44" type="text" value="Brobignagian"><br><label for="text">Text:</label><br><textarea cols="58" name="text" placeholder="Write something..." rows="15">Very large and slightly awkward.\r\ncss:/12345678/12395678\r\n\r\n\r\n/00000000/00000000\r\n\r\ndoor:/00000000/00000020\r\n\r\ncss:/12345678/12395679</textarea><br><input name="fake_out_caching" type="hidden" value="3133142548"><input type="submit" value="post"></form></body></html>'
p469
sg34
g4
sbs(I305419896
I0
tp470
g0
(g10
g2
Ntp471
Rp472
(dp473
g14
(dp474
g341
S'index:/12345678/cafebabe'
p475
sg343
S'Csses'
p476
ssg32
S'<html><head><title>Csses</title></head><body><h1><a href="/12345678/00000000">Csses</a></h1><div><p><ol><li><a href="/12345678/00000000">Csses</a><ol><li><a href="/12345678/12345678">Brobignagian</a></li><li><a href="/12345678/12395678">Some Css</a></li><li><a href="/12345678/12395679">Door Css</a></li></ol></li></ol></p></div><hr><form action="/12345678/00000000" method="POST"><h4>Edit</h4><label for="title">Title:</label><input name="title" placeholder="No Title" size="44" type="text" value="Csses"><br><label for="text">Text:</label><br><textarea cols="88" name="text" placeholder="Write something..." rows="5">index:/12345678/cafebabe</textarea><br><input name="fake_out_caching" type="hidden" value="925644716"><input type="submit" value="post"></form></body></html>'
p477
sg34
g4
sbs(I1511424
I2
tp478
g0
(g10
g2
Ntp479
Rp480
(dp481
g14
(dp482
g369
S'li:/00171000/00000001\r\nli:/00171000/00000003\r\nli:/00171000/00000001'
p483
sg371
S'A List'
p484
ssg32
S'<html><head><title>A List</title></head><body><h1><a href="/00171000/00000002">A List</a></h1><div><li>Bananas are delicious.</li>\r\n<li><p>Bananas are delicious.</p>\r\n<div>Bananas are delicious.</div>\r\nBananas are delicious.</li>\r\n<li>Bananas are delicious.</li></div><hr><form action="/00171000/00000002" method="POST"><h4>Edit</h4><label for="title">Title:</label><input name="title" placeholder="You can use the editor below to write some text..." size="44" type="text" value="A List"><br><label for="text">Text:</label><br><textarea cols="58" name="text" placeholder="Write something..." rows="15">li:/00171000/00000001\r\nli:/00171000/00000003\r\nli:/00171000/00000001</textarea><br><input name="fake_out_caching" type="hidden" value="46902788"><input type="submit" value="post"></form></body></html>'
p485
sg34
g4
sbssS'pather'
p486
ceumi.server
pather
p487
sS'page_renderer'
p488
ceumi.page
Page
p489
sS'modified'
p490
I00
sb.