ccopy_reg
_reconstructor
p0
(ceumi.server
EumiServer
p1
c__builtin__
object
p2
Ntp3
Rp4
(dp5
S'debug'
p6
I00
sS'router'
p7
(dp8
(I16843009
I57
tp9
g0
(ceumi.server
PageHandler
p10
g2
Ntp11
Rp12
(dp13
S'data'
p14
(dp15
S'text'
p16
S'4 6 d ;joy:/01010101/00000039text:/01010102/00000002'
p17
sS'title'
p18
S'4d6'
p19
sS'joy'
p20
(I4
(I6
(g0
(ceumi.joy.functions
FunctionWrapper
p21
g2
Ntp22
Rp23
(dp24
S'name'
p25
S'd'
p26
sS'f'
p27
ceumi.joy.morewords
d
p28
sb(ttp29
tp30
tp31
ssS'response'
p32
S'<html><head><title>4d6</title><style>body { background:#cfc; }</style></head><body><h1><a href="/01010101/00000039">4d6</a></h1><div>4 6 d ;<form action="/01010101/00000039" class="command" method="POST"><input name="fake_out_caching" type="hidden" value="676163095"><input name="command" type="hidden" value="/01010101/00000035"><input type="submit" value="clear"></form></div><hr><form action="/01010101/00000039" method="POST"><h4>Edit</h4><label for="title">Title:</label><input name="title" placeholder="You can use the editor below to write some text..." size="44" type="text" value="4d6"><br><label for="text">Text:</label><br><textarea cols="58" name="text" placeholder="Write something..." rows="15">4 6 d ;joy:/01010101/00000039text:/01010102/00000002</textarea><br><input name="fake_out_caching" type="hidden" value="931766936"><input type="submit" value="post"></form></body></html>'
p33
sS'server'
p34
g4
sbs(I305419896
I305747585
tp35
g0
(g10
g2
Ntp36
Rp37
(dp38
g14
(dp39
S'text'
p40
S'p {\r\n  margin: 0px;\r\n}\r\n \r\ndiv { background: #ffa; }\r\n\r\n/*css:/12345678/12395681*/'
p41
sS'title'
p42
S'CSS CSS'
p43
ssg32
S'<html><head><title>CSS CSS</title><style>p {\r\n  margin: 0px;\r\n}\r\n \r\ndiv { background: #ffa; }\r\n\r\n/*css:/12345678/12395681*/</style></head><body><h1><a href="/12345678/12395681">CSS CSS</a></h1><div><p>p {</p><p>  margin: 0px;</p><p>}</p><p> </p><p>div { background: #ffa; }</p><p></p><p>/**/</p></div><hr><form action="/12345678/12395681" method="POST"><h4>Edit</h4><label for="title">Title:</label><input name="title" placeholder="No Title" size="44" type="text" value="CSS CSS"><br><label for="text">Text:</label><br><textarea cols="58" name="text" placeholder="Write something..." rows="15">p {\r\n  margin: 0px;\r\n}\r\n \r\ndiv { background: #ffa; }\r\n\r\n/*css:/12345678/12395681*/</textarea><br><input name="fake_out_caching" type="hidden" value="36988113"><input type="submit" value="post"></form></body></html>'
p44
sg34
g4
sbs(I2290614272
I0
tp45
g0
(g10
g2
Ntp46
Rp47
(dp48
g14
(dp49
S'text'
p50
S'index:/88880000/00000000'
p51
sS'title'
p52
S'Spaceships'
p53
ssg32
S'<html><head><title>Spaceships</title></head><body><h1><a href="/88880000/00000000">Spaceships</a></h1><div><p><ol><li><a href="/88880000/00000000">Spaceships</a><ol><li><a href="/88880000/00000001">The TARDIS</a></li></ol></li></ol></p></div><hr><form action="/88880000/00000000" method="POST"><h4>Edit</h4><label for="title">Title:</label><input name="title" placeholder="No Title" size="44" type="text" value="Spaceships"><br><label for="text">Text:</label><br><textarea cols="88" name="text" placeholder="Write something..." rows="5">index:/88880000/00000000</textarea><br><input name="fake_out_caching" type="hidden" value="2859869683"><input type="submit" value="post"></form></body></html>'
p54
sg34
g4
sbs(I305419896
I16843009
tp55
g0
(g10
g2
Ntp56
Rp57
(dp58
g14
(dp59
S'text'
p60
S'body { background:#cfc; }'
p61
sS'title'
p62
S'Joy Css'
p63
ssg32
S'<html><head><title>Joy Css</title></head><body><h1><a href="/12345678/01010101">Joy Css</a></h1><div><p>body { background:#cfc; }</p></div><hr><form action="/12345678/01010101" method="POST"><h4>Edit</h4><label for="title">Title:</label><input name="title" placeholder="No Title" size="44" type="text" value="Joy Css"><br><label for="text">Text:</label><br><textarea cols="88" name="text" placeholder="Write something..." rows="5">body { background:#cfc; }</textarea><br><input name="fake_out_caching" type="hidden" value="2675289055"><input type="submit" value="post"></form></body></html>'
p64
sg34
g4
sbs(I16843009
I64
tp65
g0
(g10
g2
Ntp66
Rp67
(dp68
g14
(dp69
S'text'
p70
S'1 6 d 1 6 d 1 6 d 1 6 d [] cons cons cons cons\r\n;\r\n\r\nResults in a list [1d6 1d6 1d6 1d6]\r\n\r\nThen you can remove the least of the four and sum the remaining three to get a score for a D&D stat, "Roll 4d6 and discard the lowest roll."\r\n\r\n[] [[1 6 d] 4 times] infra\r\n\r\n[1 6 d] 4 times [] [cons] 4 times\r\n\r\ndup min remove sum\r\n\r\njoy:/01010101/00000040text:/01010102/00000002'
p71
sS'title'
p72
S'Roll four six-siders.'
p73
sS'joy'
p74
(I1
(I6
(g0
(g21
g2
Ntp75
Rp76
(dp77
g25
S'd'
p78
sg27
g28
sb(I1
(I6
(g76
(I1
(I6
(g76
(I1
(I6
(g76
((t(g0
(g21
g2
Ntp79
Rp80
(dp81
g25
S'cons'
p82
sg27
ceumi.joy.library
cons
p83
sb(g80
(g80
(g80
(ttp84
tp85
tp86
tp87
tp88
tp89
tp90
tp91
tp92
tp93
tp94
tp95
tp96
tp97
tp98
tp99
tp100
ssg32
S'<html><head><title>Roll four six-siders.</title><style>body { background:#cfc; }</style></head><body><h1><a href="/01010101/00000040">Roll four six-siders.</a></h1><div><p>1 6 d 1 6 d 1 6 d 1 6 d [] cons cons cons cons\r\n;</p><p>Results in a list [1d6 1d6 1d6 1d6]</p><p>Then you can remove the least of the four and sum the remaining three to get a score for a D&amp;D stat, "Roll 4d6 and discard the lowest roll."</p><p>[] [[1 6 d] 4 times] infra</p><p>[1 6 d] 4 times [] [cons] 4 times</p><p>dup min remove sum</p><p><form action="/01010101/00000040" class="command" method="POST"><input name="fake_out_caching" type="hidden" value="4174111000"><input name="command" type="hidden" value="/01010101/00000035"><input type="submit" value="clear"></form></p></div><hr><form action="/01010101/00000040" method="POST"><h4>Edit</h4><label for="title">Title:</label><input name="title" placeholder="You can use the editor below to write some text..." size="44" type="text" value="Roll four six-siders."><br><label for="text">Text:</label><br><textarea cols="58" name="text" placeholder="Write something..." rows="15">1 6 d 1 6 d 1 6 d 1 6 d [] cons cons cons cons\r\n;\r\n\r\nResults in a list [1d6 1d6 1d6 1d6]\r\n\r\nThen you can remove the least of the four and sum the remaining three to get a score for a D&amp;D stat, "Roll 4d6 and discard the lowest roll."\r\n\r\n[] [[1 6 d] 4 times] infra\r\n\r\n[1 6 d] 4 times [] [cons] 4 times\r\n\r\ndup min remove sum\r\n\r\njoy:/01010101/00000040text:/01010102/00000002</textarea><br><input name="fake_out_caching" type="hidden" value="3822274631"><input type="submit" value="post"></form></body></html>'
p101
sg34
g4
sbs(I1511424
I0
tp102
g0
(g10
g2
Ntp103
Rp104
(dp105
g14
(dp106
S'text'
p107
S'div:/00171000/00000001\r\np:/00171000/00000001\r\nol:/00171000/00000002\r\ntext:/00171000/00000001\r\ntext:/00171000/00000001\r\np:/00171000/00000001\r\nul:/00171000/00000002\r\ndiv:/00171000/00000001\r\ncss:/12345678/12395678'
p108
sS'title'
p109
S'Try the new stuff'
p110
ssg32
S'<html><head><title>Try the new stuff</title><style>@import url(http://fonts.googleapis.com/css?family=EB+Garamond);\r\n\r\nbody {\r\n  background: black;\r\n  color: #00ff00;\r\n  font-family: \'EB Garamond\', serif;\r\n  font-size: 133%;\r\n}\r\n\r\ndiv {\r\n  border: 0.1em solid;\r\n  border-radius: 3em;\r\n  padding: 1.25em 2.25em 1.25em 2.25em;\r\n}\r\n\r\n/*css:/12345678/12395681*/</style></head><body><h1><a href="/00171000/00000000">Try the new stuff</a></h1><div><div><p>Bananas are delicious.</p></div><p><p>Bananas are delicious.</p></p><ol><li><p>Bananas are delicious.</p></li><li><p><p>Bananas are delicious.</p></p><div><p>Bananas are delicious.</p></div><p>Bananas are delicious.</p></li><li><p>Bananas are delicious.</p></li></ol><p>Bananas are delicious.</p><p>Bananas are delicious.</p><p><p>Bananas are delicious.</p></p><ul><li><p>Bananas are delicious.</p></li><li><p><p>Bananas are delicious.</p></p><div><p>Bananas are delicious.</p></div><p>Bananas are delicious.</p></li><li><p>Bananas are delicious.</p></li></ul><div><p>Bananas are delicious.</p></div></div><hr><form action="/00171000/00000000" method="POST"><h4>Edit</h4><label for="title">Title:</label><input name="title" placeholder="You can use the editor below to write some text..." size="44" type="text" value="Try the new stuff"><br><label for="text">Text:</label><br><textarea cols="58" name="text" placeholder="Write something..." rows="15">div:/00171000/00000001\r\np:/00171000/00000001\r\nol:/00171000/00000002\r\ntext:/00171000/00000001\r\ntext:/00171000/00000001\r\np:/00171000/00000001\r\nul:/00171000/00000002\r\ndiv:/00171000/00000001\r\ncss:/12345678/12395678</textarea><br><input name="fake_out_caching" type="hidden" value="2480090312"><input type="submit" value="post"></form></body></html>'
p111
sg34
g4
sbs(I1511424
I3
tp112
g0
(g10
g2
Ntp113
Rp114
(dp115
g14
(dp116
S'text'
p117
S'p:/00171000/00000001\r\ndiv:/00171000/00000001\r\ndiv:/00171000/00000004\r\ntext:/00171000/00000001'
p118
sS'title'
p119
S'Some other junk.'
p120
ssg32
S'<html><head><title>Some other junk.</title></head><body><h1><a href="/00171000/00000003">Some other junk.</a></h1><div><p>Bananas are delicious.\r\n</p>\r\n<div>Bananas are delicious.\r\n</div>\r\n<div class="a-css-class">\r\nBananas are delicious.\r\n</div>\r\nBananas are delicious.\r\n</div><hr><form action="/00171000/00000003" method="POST"><h4>Edit</h4><label for="title">Title:</label><input name="title" placeholder="You can use the editor below to write some text..." size="44" type="text" value="Some other junk."><br><label for="text">Text:</label><br><textarea cols="58" name="text" placeholder="Write something..." rows="15">p:/00171000/00000001\r\ndiv:/00171000/00000001\r\ndiv:/00171000/00000004\r\ntext:/00171000/00000001</textarea><br><input name="fake_out_caching" type="hidden" value="585565672"><input type="submit" value="post"></form></body></html>'
p121
sg34
g4
sbs(I16843009
I56
tp122
g0
(g10
g2
Ntp123
Rp124
(dp125
g14
(dp126
S'text'
p127
S'enstacken ;text:/01010102/00000002'
p128
sS'title'
p129
S'enstacken'
p130
sS'joy'
p131
(g0
(ceumi.joy.definitions
DefinitionWrapper
p132
g2
Ntp133
Rp134
(dp135
S'body'
p136
(g0
(g21
g2
Ntp137
Rp138
(dp139
g25
S'stack'
p140
sg27
ceumi.joy.library
stack_
p141
sb((g0
(g21
g2
Ntp142
Rp143
(dp144
g25
S'clear'
p145
sg27
ceumi.joy.library
clear
p146
sb(ttp147
(g0
(g21
g2
Ntp148
Rp149
(dp150
g25
S'dip'
p151
sg27
ceumi.joy.combinators
dip
p152
sb(ttp153
tp154
tp155
sS'__name__'
p156
S'enstacken'
p157
sg25
g157
sS'__doc__'
p158
S'stack [clear] dip'
p159
sb(ttp160
ssg32
S'<html><head><title>enstacken</title><style>body { background:#cfc; }</style></head><body><h1><a href="/01010101/00000038">enstacken</a></h1><div><p>enstacken ;<p><form action="/01010101/00000038" class="command" method="POST"><input name="fake_out_caching" type="hidden" value="782127247"><input name="command" type="hidden" value="/01010101/00000035"><input type="submit" value="clear"></form></p></p></div><hr><form action="/01010101/00000038" method="POST"><h4>Edit</h4><label for="title">Title:</label><input name="title" placeholder="You can use the editor below to write some text..." size="44" type="text" value="enstacken"><br><label for="text">Text:</label><br><textarea cols="58" name="text" placeholder="Write something..." rows="15">enstacken ;text:/01010102/00000002</textarea><br><input name="fake_out_caching" type="hidden" value="2737218329"><input type="submit" value="post"></form></body></html>'
p161
sg34
g4
sbs(I0
I524320
tp162
g0
(g10
g2
Ntp163
Rp164
(dp165
g14
(dp166
S'text'
p167
S'door:/00000000/00000000\r\ncommand:/01010101/00000001command:/01010101/00000035command:/01010101/00000037command:/01010101/00000038command:/01010101/00000039command:/01010101/00000040\r\nstack:/00000000/00080020\r\nstackinto:/00000000/00080020\r\ncss:/12345678/00000023'
p168
sS'joy'
p169
(tsS'stack'
p170
(tsS'title'
p171
S'Control Panel Testing'
p172
ssg32
S'<html><head><title>Control Panel Testing</title><style>form.command { display: inline; padding: 0.5em; }</style></head><body><h1><a href="/00000000/00080020">Control Panel Testing</a></h1><div><a class="door-link" href="/00000000/00000000">[Eumirion]</a>\r\n<form action="/00000000/00080020" class="command" method="POST"><input name="fake_out_caching" type="hidden" value="2773974339"><input name="command" type="hidden" value="/01010101/00000001"><input type="submit" value="01"></form><form action="/00000000/00080020" class="command" method="POST"><input name="fake_out_caching" type="hidden" value="1726278365"><input name="command" type="hidden" value="/01010101/00000035"><input type="submit" value="clear"></form><form action="/00000000/00080020" class="command" method="POST"><input name="fake_out_caching" type="hidden" value="1419555521"><input name="command" type="hidden" value="/01010101/00000037"><input type="submit" value="first"></form><form action="/00000000/00080020" class="command" method="POST"><input name="fake_out_caching" type="hidden" value="3496990205"><input name="command" type="hidden" value="/01010101/00000038"><input type="submit" value="enstacken"></form><form action="/00000000/00080020" class="command" method="POST"><input name="fake_out_caching" type="hidden" value="1466260261"><input name="command" type="hidden" value="/01010101/00000039"><input type="submit" value="4d6"></form><form action="/00000000/00080020" class="command" method="POST"><input name="fake_out_caching" type="hidden" value="660983848"><input name="command" type="hidden" value="/01010101/00000040"><input type="submit" value="Roll four six-siders."></form>\r\n<ol></ol>\r\n\r\n</div><hr><form action="/00000000/00080020" method="POST"><h4>Edit</h4><label for="title">Title:</label><input name="title" placeholder="You can use the editor below to write some text..." size="44" type="text" value="Control Panel Testing"><br><label for="text">Text:</label><br><textarea cols="58" name="text" placeholder="Write something..." rows="15">door:/00000000/00000000\r\ncommand:/01010101/00000001command:/01010101/00000035command:/01010101/00000037command:/01010101/00000038command:/01010101/00000039command:/01010101/00000040\r\nstack:/00000000/00080020\r\nstackinto:/00000000/00080020\r\ncss:/12345678/00000023</textarea><br><input name="fake_out_caching" type="hidden" value="1576293613"><input type="submit" value="post"></form></body></html>'
p173
sg34
g4
sbs(I16843009
I55
tp174
g0
(g10
g2
Ntp175
Rp176
(dp177
g14
(dp178
S'text'
p179
S'first ;text:/01010102/00000002'
p180
sS'title'
p181
S'first'
p182
sS'joy'
p183
(g0
(g132
g2
Ntp184
Rp185
(dp186
g136
(g0
(g21
g2
Ntp187
Rp188
(dp189
g25
S'uncons'
p190
sg27
ceumi.joy.library
uncons
p191
sb(g0
(g21
g2
Ntp192
Rp193
(dp194
g25
S'pop'
p195
sg27
ceumi.joy.library
pop
p196
sb(ttp197
tp198
sg156
S'first'
p199
sg25
g199
sg158
S'# This is ALSO one of the most basic commands.\n# It provides the first item of a sequence...\n'
p200
sb(ttp201
ssg32
S'<html><head><title>first</title><style>body { background:#cfc; }</style></head><body><h1><a href="/01010101/00000037">first</a></h1><div><p>first ;<p><form action="/01010101/00000037" class="command" method="POST"><input name="fake_out_caching" type="hidden" value="2656798380"><input name="command" type="hidden" value="/01010101/00000035"><input type="submit" value="clear"></form></p></p></div><hr><form action="/01010101/00000037" method="POST"><h4>Edit</h4><label for="title">Title:</label><input name="title" placeholder="You can use the editor below to write some text..." size="44" type="text" value="first"><br><label for="text">Text:</label><br><textarea cols="58" name="text" placeholder="Write something..." rows="15">first ;text:/01010102/00000002</textarea><br><input name="fake_out_caching" type="hidden" value="2758267846"><input type="submit" value="post"></form></body></html>'
p202
sg34
g4
sbs(I0
I0
tp203
g0
(g10
g2
Ntp204
Rp205
(dp206
g14
(dp207
S'text'
p208
S'Home\r\nClick here to parametrically create a solar system. /77700000/00000000\r\n\r\n has:/00000000/00000019 inset:/00000000/00000021 /00000000/00000003\r\n\r\ndoor:/00000000/00000020\r\n\r\ncss:/12345678/12395679'
p209
sS'title'
p210
S'Eumirion'
p211
ssg32
S'<html><head><title>Eumirion</title><style>.door-link { \r\n  border: 1px solid black;\r\n  background: tan;\r\n  padding: 0.5em;\r\n}\r\n\r\n.door-link:hover {\r\n  border: 1px solid orange;\r\n  background: black;\r\n  color: tan;\r\n  padding: 0.75em;\r\n}\r\n/*css:/12345678/12395681*/</style></head><body><h1><a href="/00000000/00000000">Eumirion</a></h1><div><p>Home\r\nClick here to parametrically create a solar system. <a href="/77700000/00000000">Parametric Creation Of Content, Including Planets</a></p><p> unknown action "has:"<a href="/00000000/00000019">Excelsior</a> unknown action "inset:"<a href="/00000000/00000021">Thronestar</a> <a href="/00000000/00000003">Is This An Index?</a></p><p><a class="door-link" href="/00000000/00000020">[This Is The Outer Limits]</a></p><p></p></div><hr><form action="/00000000/00000000" method="POST"><h4>Edit</h4><label for="title">Title:</label><input name="title" placeholder="You can use the editor below to write some text..." size="44" type="text" value="Eumirion"><br><label for="text">Text:</label><br><textarea cols="58" name="text" placeholder="Write something..." rows="15">Home\r\nClick here to parametrically create a solar system. /77700000/00000000\r\n\r\n has:/00000000/00000019 inset:/00000000/00000021 /00000000/00000003\r\n\r\ndoor:/00000000/00000020\r\n\r\ncss:/12345678/12395679</textarea><br><input name="fake_out_caching" type="hidden" value="3092757573"><input type="submit" value="post"></form></body></html>'
p212
sg34
g4
sbs(I305419896
I305747577
tp213
g0
(g10
g2
Ntp214
Rp215
(dp216
g14
(dp217
S'text'
p218
S'.door-link { \r\n  border: 1px solid black;\r\n  background: tan;\r\n  padding: 0.5em;\r\n}\r\n\r\n.door-link:hover {\r\n  border: 1px solid orange;\r\n  background: black;\r\n  color: tan;\r\n  padding: 0.75em;\r\n}\r\n/*css:/12345678/12395681*/'
p219
sS'title'
p220
S'Door Css'
p221
ssg32
S'<html><head><title>Door Css</title><style>p {\r\n  margin: 0px;\r\n}\r\n \r\ndiv { background: #ffa; }\r\n\r\n/*css:/12345678/12395681*/</style></head><body><h1><a href="/12345678/12395679">Door Css</a></h1><div><p>.door-link { \r\n  border: 1px solid black;\r\n  background: tan;\r\n  padding: 0.5em;\r\n}</p><p>.door-link:hover {\r\n  border: 1px solid orange;\r\n  background: black;\r\n  color: tan;\r\n  padding: 0.75em;\r\n}\r\n/**/</p></div><hr><form action="/12345678/12395679" method="POST"><h4>Edit</h4><label for="title">Title:</label><input name="title" placeholder="You can use the editor below to write some text..." size="44" type="text" value="Door Css"><br><label for="text">Text:</label><br><textarea cols="58" name="text" placeholder="Write something..." rows="15">.door-link { \r\n  border: 1px solid black;\r\n  background: tan;\r\n  padding: 0.5em;\r\n}\r\n\r\n.door-link:hover {\r\n  border: 1px solid orange;\r\n  background: black;\r\n  color: tan;\r\n  padding: 0.75em;\r\n}\r\n/*css:/12345678/12395681*/</textarea><br><input name="fake_out_caching" type="hidden" value="652573242"><input type="submit" value="post"></form></body></html>'
p222
sg34
g4
sbs(I16843009
I51
tp223
g0
(g10
g2
Ntp224
Rp225
(dp226
g14
(dp227
g60
S'[-- dip] cons [swap] infra [0 >] swap while pop\r\n\r\nDo something n times.\r\n\r\ncss:/12345678/01010101'
p228
sg62
S'times'
p229
ssg32
S'<html><head><title>times</title><style>body { background:#cfc; }</style></head><body><h1><a href="/01010101/00000033">times</a></h1><div><p>[-- dip] cons [swap] infra [0 &gt;] swap while pop</p><p></p><p>Do something n times.</p><p></p><p></p></div><hr><form action="/01010101/00000033" method="POST"><h4>Edit</h4><label for="title">Title:</label><input name="title" placeholder="No Title" size="44" type="text" value="times"><br><label for="text">Text:</label><br><textarea cols="58" name="text" placeholder="Write something..." rows="15">[-- dip] cons [swap] infra [0 &gt;] swap while pop\r\n\r\nDo something n times.\r\n\r\ncss:/12345678/01010101</textarea><br><input name="fake_out_caching" type="hidden" value="471531137"><input type="submit" value="post"></form></body></html>'
p230
sg34
g4
sbs(I305419896
I305747586
tp231
g0
(g10
g2
Ntp232
Rp233
(dp234
g14
(dp235
S'text'
p236
S'a-css-class'
p237
sS'title'
p238
S'A CSS class'
p239
ssg32
S'<html><head><title>A CSS class</title></head><body><h1><a href="/12345678/12395682">A CSS class</a></h1><div>a-css-class</div><hr><form action="/12345678/12395682" method="POST"><h4>Edit</h4><label for="title">Title:</label><input name="title" placeholder="You can use the editor below to write some text..." size="44" type="text" value="A CSS class"><br><label for="text">Text:</label><br><textarea cols="58" name="text" placeholder="Write something..." rows="15">a-css-class</textarea><br><input name="fake_out_caching" type="hidden" value="2322844294"><input type="submit" value="post"></form></body></html>'
p240
sg34
g4
sbs(I16843010
I2
tp241
g0
(g10
g2
Ntp242
Rp243
(dp244
g14
(dp245
S'text'
p246
S'command:/01010101/00000035css:/12345678/01010101'
p247
sS'title'
p248
S'Template for commands.'
p249
ssg32
S'<html><head><title>Template for commands.</title><style>body { background:#cfc; }</style></head><body><h1><a href="/01010102/00000002">Template for commands.</a></h1><div><p><form action="/01010102/00000002" class="command" method="POST"><input name="fake_out_caching" type="hidden" value="3629048052"><input name="command" type="hidden" value="/01010101/00000035"><input type="submit" value="clear"></form></p></div><hr><form action="/01010102/00000002" method="POST"><h4>Edit</h4><label for="title">Title:</label><input name="title" placeholder="You can use the editor below to write some text..." size="44" type="text" value="Template for commands."><br><label for="text">Text:</label><br><textarea cols="58" name="text" placeholder="Write something..." rows="15">command:/01010101/00000035css:/12345678/01010101</textarea><br><input name="fake_out_caching" type="hidden" value="1836385450"><input type="submit" value="post"></form></body></html>'
p250
sg34
g4
sbs(I0
I3405691582
tp251
g0
(g10
g2
Ntp252
Rp253
(dp254
g14
(dp255
S'text'
p256
S'very young red dragon grab helpless goblin as guide through the human world'
p257
sS'title'
p258
S'warrior dark elf'
p259
ssg32
S'<html><head><title>warrior dark elf</title></head><body><h1><a href="/00000000/cafebabe">warrior dark elf</a></h1><div><p>very young red dragon grab helpless goblin as guide through the human world</p></div><hr><form action="/00000000/cafebabe" method="POST"><h4>Edit</h4><label for="title">Title:</label><input name="title" placeholder="No Title" size="44" type="text" value="warrior dark elf"><br><label for="text">Text:</label><br><textarea cols="58" name="text" placeholder="Write something..." rows="15">very young red dragon grab helpless goblin as guide through the human world</textarea><br><input name="fake_out_caching" type="hidden" value="1433741694"><input type="submit" value="post"></form></body></html>'
p260
sg34
g4
sbs(I16843009
I1
tp261
g0
(g10
g2
Ntp262
Rp263
(dp264
g14
(dp265
S'text'
p266
S'0 1  ;text:/01010102/00000002'
p267
sS'joy'
p268
(I0
(I1
(ttp269
tp270
sS'title'
p271
S'01'
p272
ssg32
S'<html><head><title>01</title><style>body { background:#cfc; }</style></head><body><h1><a href="/01010101/00000001">01</a></h1><div><p>0 1  ;<p><form action="/01010101/00000001" class="command" method="POST"><input name="fake_out_caching" type="hidden" value="41567031"><input name="command" type="hidden" value="/01010101/00000035"><input type="submit" value="clear"></form></p></p></div><hr><form action="/01010101/00000001" method="POST"><h4>Edit</h4><label for="title">Title:</label><input name="title" placeholder="You can use the editor below to write some text..." size="44" type="text" value="01"><br><label for="text">Text:</label><br><textarea cols="58" name="text" placeholder="Write something..." rows="15">0 1  ;text:/01010102/00000002</textarea><br><input name="fake_out_caching" type="hidden" value="2537374234"><input type="submit" value="post"></form></body></html>'
p273
sg34
g4
sbs(I0
I33
tp274
g0
(g10
g2
Ntp275
Rp276
(dp277
g14
(dp278
S'text'
p279
S'The massive black hole at the center of each galaxy is called the "Thronestar"..  Time slows down near the event horizon of such a titanic mass and galactic civilizations seek proximity to it as a means of prolonging existance.\r\n\r\ntext:/00000000/00080020\r\ncss:/12345678/12395678\r\nstack:/00000000/00000021\r\n/00000000/00080020'
p280
sS'joy'
p281
((I1
(I0
(ttp282
tp283
(ttp284
sS'stack'
p285
(tsS'title'
p286
S'Thronestar'
p287
ssg32
S'<html><head><title>Thronestar</title><style>form.command { display: inline; padding: 0.5em; }</style><style>@import url(http://fonts.googleapis.com/css?family=EB+Garamond);\r\n\r\nbody {\r\n  background: black;\r\n  color: #00ff00;\r\n  font-family: \'EB Garamond\', serif;\r\n  font-size: 133%;\r\n}\r\n\r\ndiv {\r\n  border: 0.1em solid;\r\n  border-radius: 3em;\r\n  padding: 1.25em 2.25em 1.25em 2.25em;\r\n}\r\n\r\n/*css:/12345678/12395681*/</style></head><body><h1><a href="/00000000/00000021">Thronestar</a></h1><div><p>The massive black hole at the center of each galaxy is called the "Thronestar"..  Time slows down near the event horizon of such a titanic mass and galactic civilizations seek proximity to it as a means of prolonging existance.</p><p><a class="door-link" href="/00000000/00000000">[Eumirion]</a>\r\n<form action="/00000000/00000021" class="command" method="POST"><input name="fake_out_caching" type="hidden" value="3332823626"><input name="command" type="hidden" value="/01010101/00000001"><input type="submit" value="01"></form><form action="/00000000/00000021" class="command" method="POST"><input name="fake_out_caching" type="hidden" value="2522899570"><input name="command" type="hidden" value="/01010101/00000035"><input type="submit" value="clear"></form><form action="/00000000/00000021" class="command" method="POST"><input name="fake_out_caching" type="hidden" value="4143636671"><input name="command" type="hidden" value="/01010101/00000037"><input type="submit" value="first"></form><form action="/00000000/00000021" class="command" method="POST"><input name="fake_out_caching" type="hidden" value="1079105139"><input name="command" type="hidden" value="/01010101/00000038"><input type="submit" value="enstacken"></form><form action="/00000000/00000021" class="command" method="POST"><input name="fake_out_caching" type="hidden" value="852230438"><input name="command" type="hidden" value="/01010101/00000039"><input type="submit" value="4d6"></form><form action="/00000000/00000021" class="command" method="POST"><input name="fake_out_caching" type="hidden" value="966116327"><input name="command" type="hidden" value="/01010101/00000040"><input type="submit" value="Roll four six-siders."></form>\r\n<ol></ol>\r\n\r\n\r\n\r\n<ol><li>[1 0]</li></ol>\r\n<a href="/00000000/00080020">Control Panel Testing</a></p></div><hr><form action="/00000000/00000021" method="POST"><h4>Edit</h4><label for="title">Title:</label><input name="title" placeholder="You can use the editor below to write some text..." size="44" type="text" value="Thronestar"><br><label for="text">Text:</label><br><textarea cols="58" name="text" placeholder="Write something..." rows="15">The massive black hole at the center of each galaxy is called the "Thronestar"..  Time slows down near the event horizon of such a titanic mass and galactic civilizations seek proximity to it as a means of prolonging existance.\r\n\r\ntext:/00000000/00080020\r\ncss:/12345678/12395678\r\nstack:/00000000/00000021\r\n/00000000/00080020</textarea><br><input name="fake_out_caching" type="hidden" value="170344253"><input type="submit" value="post"></form></body></html>'
p288
sg34
g4
sbs(I2290614272
I1
tp289
g0
(g10
g2
Ntp290
Rp291
(dp292
g14
(dp293
g50
S'Technically not a spaceship.'
p294
sg52
S'The TARDIS'
p295
ssg32
S'<html><head><title>The Tardis</title></head><body><h1><a href="/88880000/00000001">The Tardis</a></h1><div><p>Technically not a spaceship.</p></div><hr><form action="/88880000/00000001" method="POST"><h4>Edit</h4><label for="title">Title:</label><input name="title" placeholder="No Title" size="44" type="text" value="The Tardis"><br><label for="text">Text:</label><br><textarea cols="88" name="text" placeholder="Write something..." rows="5">Technically not a spaceship.</textarea><br><input name="fake_out_caching" type="hidden" value="60472379"><input type="submit" value="post"></form></body></html>'
p296
sg34
g4
sbs(I1915748352
I0
tp297
g0
(g10
g2
Ntp298
Rp299
(dp300
g14
(dp301
S'text'
p302
S"Go to /00000000/00000000\r\n\r\nRemove the space between 'text:' and /72300000/00000000 in the link below to see the error that happens when there is a loop in the text tree.\r\n\r\ntext: /72300000/00000000"
p303
sS'title'
p304
S'Whoops'
p305
ssg32
S'<html><head><title>Whoops</title></head><body><h1><a href="/72300000/00000000">Whoops</a></h1><div><p>Go to <a href="/00000000/00000000">Eumirion</a></p><p>Remove the space between \'text:\' and <a href="/72300000/00000000">Whoops</a> in the link below to see the error that happens when there is a loop in the text tree.</p><p>text: <a href="/72300000/00000000">Whoops</a></p></div><hr><form action="/72300000/00000000" method="POST"><h4>Edit</h4><label for="title">Title:</label><input name="title" placeholder="You can use the editor below to write some text..." size="44" type="text" value="Whoops"><br><label for="text">Text:</label><br><textarea cols="58" name="text" placeholder="Write something..." rows="15">Go to /00000000/00000000\r\n\r\nRemove the space between \'text:\' and /72300000/00000000 in the link below to see the error that happens when there is a loop in the text tree.\r\n\r\ntext: /72300000/00000000</textarea><br><input name="fake_out_caching" type="hidden" value="2229852314"><input type="submit" value="post"></form></body></html>'
p306
sg34
g4
sbs(I0
I25
tp307
g0
(g10
g2
Ntp308
Rp309
(dp310
g14
(dp311
g208
S'A spaceship.\r\n\r\nDocked in orbit around /00000000/00000000.'
p312
sg210
S'Excelsior'
p313
ssg32
S'<html><head><title>Excelsior</title></head><body><h1><a href="/00000000/00000019">Excelsior</a></h1><div><p>A spaceship.</p><p></p><p>Docked in orbit around <a href="/00000000/00000000">Eumirion</a>.</p></div><hr><form action="/00000000/00000019" method="POST"><h4>Edit</h4><label for="title">Title:</label><input name="title" placeholder="No Title" size="44" type="text" value="Excelsior"><br><label for="text">Text:</label><br><textarea cols="88" name="text" placeholder="Write something..." rows="5">A spaceship.\r\n\r\nDocked in orbit around /00000000/00000000.</textarea><br><input name="fake_out_caching" type="hidden" value="234453159"><input type="submit" value="post"></form></body></html>'
p314
sg34
g4
sbs(I1511424
I4
tp315
g0
(g10
g2
Ntp316
Rp317
(dp318
g14
(dp319
S'text'
p320
S'cssclass:/12345678/12395682\r\ntext:/00171000/00000001'
p321
sS'title'
p322
S'Bananas with class!'
p323
ssg32
S'<html><head><title>Bananas with class!</title></head><body><h1><a href="/00171000/00000004">Bananas with class!</a></h1><div class="a-css-class">\r\nBananas are delicious.\r\n</div><hr><form action="/00171000/00000004" method="POST"><h4>Edit</h4><label for="title">Title:</label><input name="title" placeholder="You can use the editor below to write some text..." size="44" type="text" value="Bananas with class!"><br><label for="text">Text:</label><br><textarea cols="58" name="text" placeholder="Write something..." rows="15">cssclass:/12345678/12395682\r\ntext:/00171000/00000001</textarea><br><input name="fake_out_caching" type="hidden" value="3929778357"><input type="submit" value="post"></form></body></html>'
p324
sg34
g4
sbs(I0
I3
tp325
g0
(g10
g2
Ntp326
Rp327
(dp328
g14
(dp329
S'text'
p330
S'index:/00000000/cafebabe'
p331
sS'title'
p332
S'Is This An Index?'
p333
ssg32
S'<html><head><title>Is This An Index?</title></head><body><h1><a href="/00000000/00000003">Is This An Index?</a></h1><div><ol><li><a href="/00000000/00000000">Eumirion</a><ol><li><a href="/00000000/00000003">Is This An Index?</a></li><li><a href="/00000000/00000019">Excelsior</a></li><li><a href="/00000000/00000020">This Is The Outer Limits</a></li><li><a href="/00000000/00000021">Thronestar</a></li><li><a href="/00000000/00080020">Control Panel Testing</a></li><li><a href="/00000000/cafebabe">warrior dark elf</a></li></ol></li><li><a href="/00171000/00000000">Try the new stuff</a><ol><li><a href="/00171000/00000001">Bananas</a></li><li><a href="/00171000/00000002">A List</a></li><li><a href="/00171000/00000003">Some other junk.</a></li><li><a href="/00171000/00000004">Bananas with class!</a></li></ol></li><li><a href="/01010101/00000000">Joy Code</a><ol><li><a href="/01010101/00000001">01</a></li><li><a href="/01010101/00000033">times</a></li><li><a href="/01010101/00000035">clear</a></li><li><a href="/01010101/00000037">first</a></li><li><a href="/01010101/00000038">enstacken</a></li><li><a href="/01010101/00000039">4d6</a></li><li><a href="/01010101/00000040">Roll four six-siders.</a></li></ol></li><li><a href="/01010102/00000000">jump to /01010102/00000000</a><ol><li><a href="/01010102/00000002">Template for commands.</a></li></ol></li><li><a href="/12344678/00000000">And then...</a><ol></ol></li><li><a href="/12345678/00000000">Csses</a><ol><li><a href="/12345678/00000023">command form CSS</a></li><li><a href="/12345678/01010101">Joy Css</a></li><li><a href="/12345678/12345678">Brobignagian</a></li><li><a href="/12345678/12395678">Some CSS</a></li><li><a href="/12345678/12395679">Door Css</a></li><li><a href="/12345678/12395680">jump to /12345678/12395680</a></li><li><a href="/12345678/12395681">CSS CSS</a></li><li><a href="/12345678/12395682">A CSS class</a></li></ol></li><li><a href="/72300000/00000000">Whoops</a><ol></ol></li><li><a href="/77700000/00000000">Parametric Creation Of Content, Including Planets</a><ol></ol></li><li><a href="/88880000/00000000">Spaceships</a><ol><li><a href="/88880000/00000001">The TARDIS</a></li></ol></li></ol></div><hr><form action="/00000000/00000003" method="POST"><h4>Edit</h4><label for="title">Title:</label><input name="title" placeholder="You can use the editor below to write some text..." size="44" type="text" value="Is This An Index?"><br><label for="text">Text:</label><br><textarea cols="58" name="text" placeholder="Write something..." rows="15">index:/00000000/cafebabe</textarea><br><input name="fake_out_caching" type="hidden" value="2225018177"><input type="submit" value="post"></form></body></html>'
p334
sg34
g4
sbs(I0
I32
tp335
g0
(g10
g2
Ntp336
Rp337
(dp338
g14
(dp339
g208
S"Not really, that's a TV show.\r\njump to /12345678/12345678\r\nbasil\r\ntext:/12345678/12345678\r\n"
p340
sg210
S'This Is The Outer Limits'
p341
ssg32
S'<html><head><title>This Is The Outer Limits</title><style>@import url(http://fonts.googleapis.com/css?family=EB+Garamond);\r\n\r\nbody {\r\n  background: black;\r\n  color: #00ff00;\r\n  font-family: \'EB Garamond\', serif;\r\n  font-size: 133%;\r\n}\r\n\r\ndiv {\r\n  border: 0.1em solid;\r\n  border-radius: 3em;\r\n  padding: 1.25em 2.25em 1.25em 2.25em;\r\n}\r\n\r\n/*css:/12345678/12395681*/</style><style>.door-link { \r\n  border: 1px solid black;\r\n  background: tan;\r\n  padding: 0.5em;\r\n}\r\n\r\n.door-link:hover {\r\n  border: 1px solid orange;\r\n  background: black;\r\n  color: tan;\r\n  padding: 0.75em;\r\n}\r\n/*css:/12345678/12395681*/</style></head><body><h1><a href="/00000000/00000020">This Is The Outer Limits</a></h1><div>Not really, that\'s a TV show.\r\njump to <a href="/12345678/12345678">Brobignagian</a>\r\nbasil\r\n<p>Very large and slightly awkward.\r\n</p><p>\r\n<a href="/00000000/00000000">Eumirion</a></p><p><a class="door-link" href="/00000000/00000020">[This Is The Outer Limits]</a></p><p></p>\r\n</div><hr><form action="/00000000/00000020" method="POST"><h4>Edit</h4><label for="title">Title:</label><input name="title" placeholder="You can use the editor below to write some text..." size="44" type="text" value="This Is The Outer Limits"><br><label for="text">Text:</label><br><textarea cols="58" name="text" placeholder="Write something..." rows="15">Not really, that\'s a TV show.\r\njump to /12345678/12345678\r\nbasil\r\ntext:/12345678/12345678\r\n</textarea><br><input name="fake_out_caching" type="hidden" value="1114690666"><input type="submit" value="post"></form></body></html>'
p342
sg34
g4
sbs(I305419896
I0
tp343
g0
(g10
g2
Ntp344
Rp345
(dp346
g14
(dp347
g50
S'index:/12345678/cafebabe'
p348
sg52
S'Csses'
p349
ssg32
S'<html><head><title>Csses</title></head><body><h1><a href="/12345678/00000000">Csses</a></h1><div><p><ol><li><a href="/12345678/00000000">Csses</a><ol><li><a href="/12345678/12345678">Brobignagian</a></li><li><a href="/12345678/12395678">Some Css</a></li><li><a href="/12345678/12395679">Door Css</a></li></ol></li></ol></p></div><hr><form action="/12345678/00000000" method="POST"><h4>Edit</h4><label for="title">Title:</label><input name="title" placeholder="No Title" size="44" type="text" value="Csses"><br><label for="text">Text:</label><br><textarea cols="88" name="text" placeholder="Write something..." rows="5">index:/12345678/cafebabe</textarea><br><input name="fake_out_caching" type="hidden" value="925644716"><input type="submit" value="post"></form></body></html>'
p350
sg34
g4
sbs(I2003828736
I0
tp351
g0
(g10
g2
Ntp352
Rp353
(dp354
g14
(dp355
S'text'
p356
S'I want to provide tools that can be used in-server to parametrically create things like star systems, species, artifacts and phenomenon, etc... using e.g. 2d6 5d12 1d20 &c. D&D-style "dice" and charts.  Maybe pull content from fan wikis of sci-fi shows and books etc...\r\n\r\ncommand:/01010101/00000040\r\ncommand:/01010101/00000035\r\n\r\ncss:/12345678/12395678css:/12345678/00000023\r\nParametric dice are easy to make, along with tables and ways to sample from the tables to build new content and load it into the server.\r\nstack:/77700000/00000000'
p357
sS'joy'
p358
((I2
(I6
(I1
(I1
(ttp359
tp360
tp361
tp362
((I5
(I6
(I3
(I4
(ttp363
tp364
tp365
tp366
(ttp367
tp368
sS'title'
p369
S'Parametric Creation Of Content, Including Planets'
p370
ssg32
S'<html><head><title>Parametric Creation Of Content, Including Planets</title><style>@import url(http://fonts.googleapis.com/css?family=EB+Garamond);\r\n\r\nbody {\r\n  background: black;\r\n  color: #00ff00;\r\n  font-family: \'EB Garamond\', serif;\r\n  font-size: 133%;\r\n}\r\n\r\ndiv {\r\n  border: 0.1em solid;\r\n  border-radius: 3em;\r\n  padding: 1.25em 2.25em 1.25em 2.25em;\r\n}\r\n\r\n/*css:/12345678/12395681*/</style><style>form.command { display: inline; padding: 0.5em; }</style></head><body><h1><a href="/77700000/00000000">Parametric Creation Of Content, Including Planets</a></h1><div><p>I want to provide tools that can be used in-server to parametrically create things like star systems, species, artifacts and phenomenon, etc... using e.g. 2d6 5d12 1d20 &amp;c. D&amp;D-style "dice" and charts.  Maybe pull content from fan wikis of sci-fi shows and books etc...</p><p><form action="/77700000/00000000" class="command" method="POST"><input name="fake_out_caching" type="hidden" value="116367341"><input name="command" type="hidden" value="/01010101/00000040"><input type="submit" value="Roll four six-siders."></form>\r\n<form action="/77700000/00000000" class="command" method="POST"><input name="fake_out_caching" type="hidden" value="2255756460"><input name="command" type="hidden" value="/01010101/00000035"><input type="submit" value="clear"></form></p><p>\r\nParametric dice are easy to make, along with tables and ways to sample from the tables to build new content and load it into the server.\r\n<ol><li>[2 6 1 1]</li><li>[5 6 3 4]</li></ol></p></div><hr><form action="/77700000/00000000" method="POST"><h4>Edit</h4><label for="title">Title:</label><input name="title" placeholder="You can use the editor below to write some text..." size="44" type="text" value="Parametric Creation Of Content, Including Planets"><br><label for="text">Text:</label><br><textarea cols="58" name="text" placeholder="Write something..." rows="15">I want to provide tools that can be used in-server to parametrically create things like star systems, species, artifacts and phenomenon, etc... using e.g. 2d6 5d12 1d20 &amp;c. D&amp;D-style "dice" and charts.  Maybe pull content from fan wikis of sci-fi shows and books etc...\r\n\r\ncommand:/01010101/00000040\r\ncommand:/01010101/00000035\r\n\r\ncss:/12345678/12395678css:/12345678/00000023\r\nParametric dice are easy to make, along with tables and ways to sample from the tables to build new content and load it into the server.\r\nstack:/77700000/00000000</textarea><br><input name="fake_out_caching" type="hidden" value="2569247541"><input type="submit" value="post"></form></body></html>'
p371
sg34
g4
sbs(I16843009
I0
tp372
g0
(g10
g2
Ntp373
Rp374
(dp375
g14
(dp376
g60
S'a b [c d] [e f] while\r\ncss:/12345678/01010101'
p377
sg62
S'Joy Code'
p378
ssg32
S'<html><head><title>Joy Code</title><style>body { background:#cfc; }</style></head><body><h1><a href="/01010101/00000000">Joy Code</a></h1><div><p>a b [c d] [e f] while</p><p></p></div><hr><form action="/01010101/00000000" method="POST"><h4>Edit</h4><label for="title">Title:</label><input name="title" placeholder="No Title" size="44" type="text" value="Joy Code"><br><label for="text">Text:</label><br><textarea cols="88" name="text" placeholder="Write something..." rows="5">a b [c d] [e f] while\r\ncss:/12345678/01010101</textarea><br><input name="fake_out_caching" type="hidden" value="1219654015"><input type="submit" value="post"></form></body></html>'
p379
sg34
g4
sbs(I1511424
I1
tp380
g0
(g10
g2
Ntp381
Rp382
(dp383
g14
(dp384
g107
S'Bananas are delicious.\r\n'
p385
sg109
S'Bananas'
p386
ssg32
S'<html><head><title>Bananas</title></head><body><h1><a href="/00171000/00000001">Bananas</a></h1><div>Bananas are delicious.\r\n</div><hr><form action="/00171000/00000001" method="POST"><h4>Edit</h4><label for="title">Title:</label><input name="title" placeholder="You can use the editor below to write some text..." size="44" type="text" value="Bananas"><br><label for="text">Text:</label><br><textarea cols="58" name="text" placeholder="Write something..." rows="15">Bananas are delicious.\r\n</textarea><br><input name="fake_out_caching" type="hidden" value="815412886"><input type="submit" value="post"></form></body></html>'
p387
sg34
g4
sbs(I16843009
I53
tp388
g0
(g10
g2
Ntp389
Rp390
(dp391
g14
(dp392
g256
S'clear ;joy:/01010101/00000035text:/01010102/00000002'
p393
sg268
(g0
(g21
g2
Ntp394
Rp395
(dp396
g25
S'clear'
p397
sg27
g146
sb(ttp398
sg258
S'clear'
p399
ssg32
S'<html><head><title>clear</title><style>body { background:#cfc; }</style></head><body><h1><a href="/01010101/00000035">clear</a></h1><div>clear ;<form action="/01010101/00000035" class="command" method="POST"><input name="fake_out_caching" type="hidden" value="3164265784"><input name="command" type="hidden" value="/01010101/00000035"><input type="submit" value="clear"></form></div><hr><form action="/01010101/00000035" method="POST"><h4>Edit</h4><label for="title">Title:</label><input name="title" placeholder="You can use the editor below to write some text..." size="44" type="text" value="clear"><br><label for="text">Text:</label><br><textarea cols="58" name="text" placeholder="Write something..." rows="15">clear ;joy:/01010101/00000035text:/01010102/00000002</textarea><br><input name="fake_out_caching" type="hidden" value="883333796"><input type="submit" value="post"></form></body></html>'
p400
sg34
g4
sbs(I305415800
I0
tp401
g0
(g10
g2
Ntp402
Rp403
(dp404
g14
(dp405
S'text'
p406
S'You add zee content!'
p407
sS'title'
p408
S'And then...'
p409
ssg32
S'<html><head><title>And then...</title></head><body><h1><a href="/12344678/00000000">And then...</a></h1><div><p>You add zee content!</p></div><hr><form action="/12344678/00000000" method="POST"><h4>Edit</h4><label for="title">Title:</label><input name="title" placeholder="You can use the editor below to write some text..." size="44" type="text" value="And then..."><br><label for="text">Text:</label><br><textarea cols="58" name="text" placeholder="Write something..." rows="15">You add zee content!</textarea><br><input name="fake_out_caching" type="hidden" value="2346855653"><input type="submit" value="post"></form></body></html>'
p410
sg34
g4
sbs(I305419896
I305419896
tp411
g0
(g10
g2
Ntp412
Rp413
(dp414
g14
(dp415
S'text'
p416
S'Very large and slightly awkward.\r\ncss:/12345678/12395678\r\n\r\n\r\n/00000000/00000000\r\n\r\ndoor:/00000000/00000020\r\n\r\ncss:/12345678/12395679'
p417
sS'title'
p418
S'Brobignagian'
p419
ssg32
S'<html><head><title>Brobignagian</title><style>@import url(http://fonts.googleapis.com/css?family=EB+Garamond);\r\n\r\nbody {\r\n  background: black;\r\n  color: #00ff00;\r\n  font-family: \'EB Garamond\', serif;\r\n  font-size: 133%;\r\n}\r\n\r\ndiv {\r\n  border: 0.1em solid;\r\n  border-radius: 3em;\r\n  padding: 1.25em 2.25em 1.25em 2.25em;\r\n}\r\n\r\n/*css:/12345678/12395681*/</style><style>.door-link { \r\n  border: 1px solid black;\r\n  background: tan;\r\n  padding: 0.5em;\r\n}\r\n\r\n.door-link:hover {\r\n  border: 1px solid orange;\r\n  background: black;\r\n  color: tan;\r\n  padding: 0.75em;\r\n}\r\n/*css:/12345678/12395681*/</style></head><body><h1><a href="/12345678/12345678">Brobignagian</a></h1><div><p>Very large and slightly awkward.\r\n</p><p>\r\n<a href="/00000000/00000000">Eumirion</a></p><p><a class="door-link" href="/00000000/00000020">[This Is The Outer Limits]</a></p><p></p></div><hr><form action="/12345678/12345678" method="POST"><h4>Edit</h4><label for="title">Title:</label><input name="title" placeholder="You can use the editor below to write some text..." size="44" type="text" value="Brobignagian"><br><label for="text">Text:</label><br><textarea cols="58" name="text" placeholder="Write something..." rows="15">Very large and slightly awkward.\r\ncss:/12345678/12395678\r\n\r\n\r\n/00000000/00000000\r\n\r\ndoor:/00000000/00000020\r\n\r\ncss:/12345678/12395679</textarea><br><input name="fake_out_caching" type="hidden" value="3594715384"><input type="submit" value="post"></form></body></html>'
p420
sg34
g4
sbs(I305419896
I35
tp421
g0
(g10
g2
Ntp422
Rp423
(dp424
g14
(dp425
g256
S'form.command { display: inline; padding: 0.5em; }'
p426
sg258
S'command form CSS'
p427
ssg32
S'<html><head><title>command form CSS</title></head><body><h1><a href="/12345678/00000023">command form CSS</a></h1><div><p>form.command { display: inline; padding: 0.5em; }</p></div><hr><form action="/12345678/00000023" method="POST"><h4>Edit</h4><label for="title">Title:</label><input name="title" placeholder="No Title" size="44" type="text" value="command form CSS"><br><label for="text">Text:</label><br><textarea cols="58" name="text" placeholder="Write something..." rows="15">form.command { display: inline; padding: 0.5em; }</textarea><br><input name="fake_out_caching" type="hidden" value="3229924183"><input type="submit" value="post"></form></body></html>'
p428
sg34
g4
sbs(I305419896
I305747576
tp429
g0
(g10
g2
Ntp430
Rp431
(dp432
g14
(dp433
S'text'
p434
S"@import url(http://fonts.googleapis.com/css?family=EB+Garamond);\r\n\r\nbody {\r\n  background: black;\r\n  color: #00ff00;\r\n  font-family: 'EB Garamond', serif;\r\n  font-size: 133%;\r\n}\r\n\r\ndiv {\r\n  border: 0.1em solid;\r\n  border-radius: 3em;\r\n  padding: 1.25em 2.25em 1.25em 2.25em;\r\n}\r\n\r\n/*css:/12345678/12395681*/"
p435
sS'title'
p436
S'Some CSS'
p437
ssg32
S'<html><head><title>Some CSS</title><style>p {\r\n  margin: 0px;\r\n}\r\n \r\ndiv { background: #ffa; }\r\n\r\n/*css:/12345678/12395681*/</style></head><body><h1><a href="/12345678/12395678">Some CSS</a></h1><div><p>@import url(http://fonts.googleapis.com/css?family=EB+Garamond);</p><p></p><p>body {</p><p>  background: black;</p><p>  color: #00ff00;</p><p>  font-family: \'EB Garamond\', serif;</p><p>  font-size: 133%;</p><p>}</p><p></p><p>div {</p><p>  border: 0.1em solid;</p><p>  border-radius: 3em;</p><p>  padding: 1.25em 2.25em 1.25em 2.25em;</p><p>}</p><p></p><p>/**/</p></div><hr><form action="/12345678/12395678" method="POST"><h4>Edit</h4><label for="title">Title:</label><input name="title" placeholder="No Title" size="44" type="text" value="Some CSS"><br><label for="text">Text:</label><br><textarea cols="58" name="text" placeholder="Write something..." rows="15">@import url(http://fonts.googleapis.com/css?family=EB+Garamond);\r\n\r\nbody {\r\n  background: black;\r\n  color: #00ff00;\r\n  font-family: \'EB Garamond\', serif;\r\n  font-size: 133%;\r\n}\r\n\r\ndiv {\r\n  border: 0.1em solid;\r\n  border-radius: 3em;\r\n  padding: 1.25em 2.25em 1.25em 2.25em;\r\n}\r\n\r\n/*css:/12345678/12395681*/</textarea><br><input name="fake_out_caching" type="hidden" value="1459831538"><input type="submit" value="post"></form></body></html>'
p438
sg34
g4
sbs(I305419896
I305747584
tp439
g0
(g10
g2
Ntp440
Rp441
(dp442
g14
(dp443
g40
S''
p444
sg42
g444
ssg32
S'<html><head><title>/12345678/12395680</title></head><body><h1><a href="/12345678/12395680">No Title</a></h1><div><p class="default-text">You can use the editor below to write some text...</p></div><hr><form action="/12345678/12395680" method="POST"><h4>Edit</h4><label for="title">Title:</label><input name="title" placeholder="No Title" size="44" type="text" value=""><br><label for="text">Text:</label><br><textarea cols="58" name="text" placeholder="Write something..." rows="15"></textarea><br><input name="fake_out_caching" type="hidden" value="681643869"><input type="submit" value="post"></form></body></html>'
p445
sg34
g4
sbs(I1511424
I2
tp446
g0
(g10
g2
Ntp447
Rp448
(dp449
g14
(dp450
g117
S'li:/00171000/00000001\r\nli:/00171000/00000003\r\nli:/00171000/00000001'
p451
sg119
S'A List'
p452
ssg32
S'<html><head><title>A List</title></head><body><h1><a href="/00171000/00000002">A List</a></h1><div><li>Bananas are delicious.</li>\r\n<li><p>Bananas are delicious.</p>\r\n<div>Bananas are delicious.</div>\r\nBananas are delicious.</li>\r\n<li>Bananas are delicious.</li></div><hr><form action="/00171000/00000002" method="POST"><h4>Edit</h4><label for="title">Title:</label><input name="title" placeholder="You can use the editor below to write some text..." size="44" type="text" value="A List"><br><label for="text">Text:</label><br><textarea cols="58" name="text" placeholder="Write something..." rows="15">li:/00171000/00000001\r\nli:/00171000/00000003\r\nli:/00171000/00000001</textarea><br><input name="fake_out_caching" type="hidden" value="46902788"><input type="submit" value="post"></form></body></html>'
p453
sg34
g4
sbssS'pather'
p454
ceumi.server
pather
p455
sS'page_renderer'
p456
ceumi.page
Page
p457
sS'modified'
p458
I00
sb.