ccopy_reg
_reconstructor
p0
(ceumi.server
EumiServer
p1
c__builtin__
object
p2
Ntp3
Rp4
(dp5
S'debug'
p6
I00
sS'router'
p7
(dp8
(I16843009
I57
tp9
g0
(ceumi.server
PageHandler
p10
g2
Ntp11
Rp12
(dp13
S'data'
p14
(dp15
S'text'
p16
S'4 6 d ;joy:/01010101/00000039text:/01010102/00000002'
p17
sS'title'
p18
S'4d6'
p19
sS'joy'
p20
(I4
(I6
(g0
(ceumi.joy.functions
FunctionWrapper
p21
g2
Ntp22
Rp23
(dp24
S'name'
p25
S'd'
p26
sS'f'
p27
ceumi.joy.morewords
d
p28
sb(ttp29
tp30
tp31
ssS'response'
p32
S'<html><head><title>4d6</title><style>body { background:#cfc; }</style></head><body><h1><a href="/01010101/00000039">4d6</a></h1><div>4 6 d ;<form action="/01010101/00000039" class="command" method="POST"><input name="fake_out_caching" type="hidden" value="676163095"><input name="command" type="hidden" value="/01010101/00000035"><input type="submit" value="clear"></form></div><hr><form action="/01010101/00000039" method="POST"><h4>Edit</h4><label for="title">Title:</label><input name="title" placeholder="You can use the editor below to write some text..." size="44" type="text" value="4d6"><br><label for="text">Text:</label><br><textarea cols="58" name="text" placeholder="Write something..." rows="15">4 6 d ;joy:/01010101/00000039text:/01010102/00000002</textarea><br><input name="fake_out_caching" type="hidden" value="931766936"><input type="submit" value="post"></form></body></html>'
p33
sS'server'
p34
g4
sbs(I305419896
I305747585
tp35
g0
(g10
g2
Ntp36
Rp37
(dp38
g14
(dp39
S'text'
p40
S'p {\r\n  margin: 0px;\r\n}\r\n \r\ndiv { background: #ffa; }\r\n\r\n/*css:/12345678/12395681*/'
p41
sS'title'
p42
S'CSS CSS'
p43
ssg32
S'<html><head><title>CSS CSS</title><style>p {\r\n  margin: 0px;\r\n}\r\n \r\ndiv { background: #ffa; }\r\n\r\n/*css:/12345678/12395681*/</style></head><body><h1><a href="/12345678/12395681">CSS CSS</a></h1><div><p>p {</p><p>  margin: 0px;</p><p>}</p><p> </p><p>div { background: #ffa; }</p><p></p><p>/**/</p></div><hr><form action="/12345678/12395681" method="POST"><h4>Edit</h4><label for="title">Title:</label><input name="title" placeholder="No Title" size="44" type="text" value="CSS CSS"><br><label for="text">Text:</label><br><textarea cols="58" name="text" placeholder="Write something..." rows="15">p {\r\n  margin: 0px;\r\n}\r\n \r\ndiv { background: #ffa; }\r\n\r\n/*css:/12345678/12395681*/</textarea><br><input name="fake_out_caching" type="hidden" value="36988113"><input type="submit" value="post"></form></body></html>'
p44
sg34
g4
sbs(I2290614272
I0
tp45
g0
(g10
g2
Ntp46
Rp47
(dp48
g14
(dp49
S'text'
p50
S'index:/88880000/00000000'
p51
sS'title'
p52
S'Spaceships'
p53
ssg32
S'<html><head><title>Spaceships</title></head><body><h1><a href="/88880000/00000000">Spaceships</a></h1><div><p><ol><li><a href="/88880000/00000000">Spaceships</a><ol><li><a href="/88880000/00000001">The TARDIS</a></li></ol></li></ol></p></div><hr><form action="/88880000/00000000" method="POST"><h4>Edit</h4><label for="title">Title:</label><input name="title" placeholder="No Title" size="44" type="text" value="Spaceships"><br><label for="text">Text:</label><br><textarea cols="88" name="text" placeholder="Write something..." rows="5">index:/88880000/00000000</textarea><br><input name="fake_out_caching" type="hidden" value="2859869683"><input type="submit" value="post"></form></body></html>'
p54
sg34
g4
sbs(I305419896
I16843009
tp55
g0
(g10
g2
Ntp56
Rp57
(dp58
g14
(dp59
S'text'
p60
S'body { background:#cfc; }'
p61
sS'title'
p62
S'Joy Css'
p63
ssg32
S'<html><head><title>Joy Css</title></head><body><h1><a href="/12345678/01010101">Joy Css</a></h1><div><p>body { background:#cfc; }</p></div><hr><form action="/12345678/01010101" method="POST"><h4>Edit</h4><label for="title">Title:</label><input name="title" placeholder="No Title" size="44" type="text" value="Joy Css"><br><label for="text">Text:</label><br><textarea cols="88" name="text" placeholder="Write something..." rows="5">body { background:#cfc; }</textarea><br><input name="fake_out_caching" type="hidden" value="2675289055"><input type="submit" value="post"></form></body></html>'
p64
sg34
g4
sbs(I16843009
I64
tp65
g0
(g10
g2
Ntp66
Rp67
(dp68
g14
(dp69
S'text'
p70
S'1 6 d unit\r\n1 6 d swons\r\n1 6 d swons\r\n1 6 d swons\r\n;\r\nResults in a list [1d6 1d6 1d6 1d6]\r\n\r\nThen you can remove the least of the four and sum the remaining three to get a score for a D&D stat, "Roll 4d6 and discard the lowest roll."\r\n \r\n \r\ndup min remove sum\r\n\r\njoy:/01010101/00000040text:/01010102/00000002'
p71
sS'title'
p72
S'Roll four six-siders.'
p73
sS'joy'
p74
(I1
(I6
(g0
(g21
g2
Ntp75
Rp76
(dp77
g25
S'd'
p78
sg27
g28
sb(g0
(ceumi.joy.definitions
DefinitionWrapper
p79
g2
Ntp80
Rp81
(dp82
S'body'
p83
((t(g0
(g21
g2
Ntp84
Rp85
(dp86
g25
S'cons'
p87
sg27
ceumi.joy.library
cons
p88
sb(ttp89
tp90
sS'__name__'
p91
S'unit'
p92
sg25
g92
sS'__doc__'
p93
S'[] cons'
p94
sb(I1
(I6
(g76
(g0
(g79
g2
Ntp95
Rp96
(dp97
g83
(g0
(g21
g2
Ntp98
Rp99
(dp100
g25
S'swap'
p101
sg27
ceumi.joy.library
swap
p102
sb(g85
(ttp103
tp104
sg91
S'swons'
p105
sg25
g105
sg93
S'swap cons'
p106
sb(I1
(I6
(g76
(g96
(I1
(I6
(g76
(g96
(ttp107
tp108
tp109
tp110
tp111
tp112
tp113
tp114
tp115
tp116
tp117
tp118
tp119
tp120
tp121
tp122
ssg32
S'<html><head><title>Roll four six-siders.</title><style>body { background:#cfc; }</style></head><body><h1><a href="/01010101/00000040">Roll four six-siders.</a></h1><div><p>1 6 d unit</p><p>1 6 d swons</p><p>1 6 d swons</p><p>1 6 d swons</p><p>;</p><p>Results in a list [1d6 1d6 1d6 1d6]</p><p>Then you can remove the least of the four and sum the remaining three to get a score for a D&amp;D stat, "Roll 4d6 and discard the lowest roll."</p><br><br><p>dup min remove sum</p><form action="/01010101/00000040" class="command" method="POST"><input name="fake_out_caching" type="hidden" value="386083465"><input name="command" type="hidden" value="/01010101/00000035"><input type="submit" value="clear"></form></div><hr><form action="/01010101/00000040" method="POST"><h4>Edit</h4><label for="title">Title:</label><input name="title" placeholder="You can use the editor below to write some text..." size="44" type="text" value="Roll four six-siders."><br><label for="text">Text:</label><br><textarea cols="58" name="text" placeholder="Write something..." rows="15">1 6 d unit\r\n1 6 d swons\r\n1 6 d swons\r\n1 6 d swons\r\n;\r\nResults in a list [1d6 1d6 1d6 1d6]\r\n\r\nThen you can remove the least of the four and sum the remaining three to get a score for a D&amp;D stat, "Roll 4d6 and discard the lowest roll."\r\n \r\n \r\ndup min remove sum\r\n\r\njoy:/01010101/00000040text:/01010102/00000002</textarea><br><input name="fake_out_caching" type="hidden" value="1140893496"><input type="submit" value="post"></form></body></html>'
p123
sg34
g4
sbs(I1511424
I0
tp124
g0
(g10
g2
Ntp125
Rp126
(dp127
g14
(dp128
S'text'
p129
S'div:/00171000/00000001\r\np:/00171000/00000001\r\nol:/00171000/00000002\r\ntext:/00171000/00000001\r\ntext:/00171000/00000001\r\np:/00171000/00000001\r\nul:/00171000/00000002\r\ndiv:/00171000/00000001\r\ncss:/12345678/12395678'
p130
sS'title'
p131
S'Try the new stuff'
p132
ssg32
S'<html><head><title>Try the new stuff</title><style>@import url(http://fonts.googleapis.com/css?family=EB+Garamond);\r\n\r\nbody {\r\n  background: black;\r\n  color: #00ff00;\r\n  font-family: \'EB Garamond\', serif;\r\n  font-size: 133%;\r\n}\r\n\r\ndiv {\r\n  border: 0.1em solid;\r\n  border-radius: 3em;\r\n  padding: 1.25em 2.25em 1.25em 2.25em;\r\n}\r\n\r\n/*css:/12345678/12395681*/</style></head><body><h1><a href="/00171000/00000000">Try the new stuff</a></h1><div><div><p>Bananas are delicious.</p></div><p><p>Bananas are delicious.</p></p><ol><li><p>Bananas are delicious.</p></li><li><p><p>Bananas are delicious.</p></p><div><p>Bananas are delicious.</p></div><p>Bananas are delicious.</p></li><li><p>Bananas are delicious.</p></li></ol><p>Bananas are delicious.</p><p>Bananas are delicious.</p><p><p>Bananas are delicious.</p></p><ul><li><p>Bananas are delicious.</p></li><li><p><p>Bananas are delicious.</p></p><div><p>Bananas are delicious.</p></div><p>Bananas are delicious.</p></li><li><p>Bananas are delicious.</p></li></ul><div><p>Bananas are delicious.</p></div></div><hr><form action="/00171000/00000000" method="POST"><h4>Edit</h4><label for="title">Title:</label><input name="title" placeholder="You can use the editor below to write some text..." size="44" type="text" value="Try the new stuff"><br><label for="text">Text:</label><br><textarea cols="58" name="text" placeholder="Write something..." rows="15">div:/00171000/00000001\r\np:/00171000/00000001\r\nol:/00171000/00000002\r\ntext:/00171000/00000001\r\ntext:/00171000/00000001\r\np:/00171000/00000001\r\nul:/00171000/00000002\r\ndiv:/00171000/00000001\r\ncss:/12345678/12395678</textarea><br><input name="fake_out_caching" type="hidden" value="2480090312"><input type="submit" value="post"></form></body></html>'
p133
sg34
g4
sbs(I16843009
I56
tp134
g0
(g10
g2
Ntp135
Rp136
(dp137
g14
(dp138
S'text'
p139
S'enstacken ;text:/01010102/00000002'
p140
sS'title'
p141
S'enstacken'
p142
sS'joy'
p143
(g0
(g79
g2
Ntp144
Rp145
(dp146
g83
(g0
(g21
g2
Ntp147
Rp148
(dp149
g25
S'stack'
p150
sg27
ceumi.joy.library
stack_
p151
sb((g0
(g21
g2
Ntp152
Rp153
(dp154
g25
S'clear'
p155
sg27
ceumi.joy.library
clear
p156
sb(ttp157
(g0
(g21
g2
Ntp158
Rp159
(dp160
g25
S'dip'
p161
sg27
ceumi.joy.combinators
dip
p162
sb(ttp163
tp164
tp165
sg91
S'enstacken'
p166
sg25
g166
sg93
S'stack [clear] dip'
p167
sb(ttp168
ssg32
S'<html><head><title>enstacken</title><style>body { background:#cfc; }</style></head><body><h1><a href="/01010101/00000038">enstacken</a></h1><div><p>enstacken ;<p><form action="/01010101/00000038" class="command" method="POST"><input name="fake_out_caching" type="hidden" value="782127247"><input name="command" type="hidden" value="/01010101/00000035"><input type="submit" value="clear"></form></p></p></div><hr><form action="/01010101/00000038" method="POST"><h4>Edit</h4><label for="title">Title:</label><input name="title" placeholder="You can use the editor below to write some text..." size="44" type="text" value="enstacken"><br><label for="text">Text:</label><br><textarea cols="58" name="text" placeholder="Write something..." rows="15">enstacken ;text:/01010102/00000002</textarea><br><input name="fake_out_caching" type="hidden" value="2737218329"><input type="submit" value="post"></form></body></html>'
p169
sg34
g4
sbs(I0
I524320
tp170
g0
(g10
g2
Ntp171
Rp172
(dp173
g14
(dp174
S'text'
p175
S'door:/00000000/00000000 \r\n \r\ncommand:/01010101/00000001command:/01010101/00000035command:/01010101/00000037command:/01010101/00000038command:/01010101/00000039command:/01010101/00000040\r\nstack:/00000000/00080020\r\nstackinto:/00000000/00080020\r\ncss:/12345678/00000023'
p176
sS'joy'
p177
(tsS'stack'
p178
(tsS'title'
p179
S'Control Panel Testing'
p180
ssg32
S'<html><head><title>Control Panel Testing</title><style>form.command { display: inline; padding: 0.5em; }</style></head><body><h1><a href="/00000000/00080020">Control Panel Testing</a></h1><div><a class="door-link" href="/00000000/00000000">[Eumirion]</a><br><br><form action="/00000000/00080020" class="command" method="POST"><input name="fake_out_caching" type="hidden" value="1870172635"><input name="command" type="hidden" value="/01010101/00000001"><input type="submit" value="01"></form><form action="/00000000/00080020" class="command" method="POST"><input name="fake_out_caching" type="hidden" value="4028980338"><input name="command" type="hidden" value="/01010101/00000035"><input type="submit" value="clear"></form><form action="/00000000/00080020" class="command" method="POST"><input name="fake_out_caching" type="hidden" value="1821782446"><input name="command" type="hidden" value="/01010101/00000037"><input type="submit" value="first"></form><form action="/00000000/00080020" class="command" method="POST"><input name="fake_out_caching" type="hidden" value="416282288"><input name="command" type="hidden" value="/01010101/00000038"><input type="submit" value="enstacken"></form><form action="/00000000/00080020" class="command" method="POST"><input name="fake_out_caching" type="hidden" value="977148504"><input name="command" type="hidden" value="/01010101/00000039"><input type="submit" value="4d6"></form><form action="/00000000/00080020" class="command" method="POST"><input name="fake_out_caching" type="hidden" value="2793095703"><input name="command" type="hidden" value="/01010101/00000040"><input type="submit" value="Roll four six-siders."></form><ol></ol></div><hr><form action="/00000000/00080020" method="POST"><h4>Edit</h4><label for="title">Title:</label><input name="title" placeholder="You can use the editor below to write some text..." size="44" type="text" value="Control Panel Testing"><br><label for="text">Text:</label><br><textarea cols="58" name="text" placeholder="Write something..." rows="15">door:/00000000/00000000 \r\n \r\ncommand:/01010101/00000001command:/01010101/00000035command:/01010101/00000037command:/01010101/00000038command:/01010101/00000039command:/01010101/00000040\r\nstack:/00000000/00080020\r\nstackinto:/00000000/00080020\r\ncss:/12345678/00000023</textarea><br><input name="fake_out_caching" type="hidden" value="2688791921"><input type="submit" value="post"></form></body></html>'
p181
sg34
g4
sbs(I16843009
I55
tp182
g0
(g10
g2
Ntp183
Rp184
(dp185
g14
(dp186
S'text'
p187
S'first ;text:/01010102/00000002'
p188
sS'title'
p189
S'first'
p190
sS'joy'
p191
(g0
(g79
g2
Ntp192
Rp193
(dp194
g83
(g0
(g21
g2
Ntp195
Rp196
(dp197
g25
S'uncons'
p198
sg27
ceumi.joy.library
uncons
p199
sb(g0
(g21
g2
Ntp200
Rp201
(dp202
g25
S'pop'
p203
sg27
ceumi.joy.library
pop
p204
sb(ttp205
tp206
sg91
S'first'
p207
sg25
g207
sg93
S'# This is ALSO one of the most basic commands.\n# It provides the first item of a sequence...\n'
p208
sb(ttp209
ssg32
S'<html><head><title>first</title><style>body { background:#cfc; }</style></head><body><h1><a href="/01010101/00000037">first</a></h1><div><p>first ;<p><form action="/01010101/00000037" class="command" method="POST"><input name="fake_out_caching" type="hidden" value="2656798380"><input name="command" type="hidden" value="/01010101/00000035"><input type="submit" value="clear"></form></p></p></div><hr><form action="/01010101/00000037" method="POST"><h4>Edit</h4><label for="title">Title:</label><input name="title" placeholder="You can use the editor below to write some text..." size="44" type="text" value="first"><br><label for="text">Text:</label><br><textarea cols="58" name="text" placeholder="Write something..." rows="15">first ;text:/01010102/00000002</textarea><br><input name="fake_out_caching" type="hidden" value="2758267846"><input type="submit" value="post"></form></body></html>'
p210
sg34
g4
sbs(I0
I0
tp211
g0
(g10
g2
Ntp212
Rp213
(dp214
g14
(dp215
S'text'
p216
S'Home\r\nClick here to parametrically create a solar system. /77700000/00000000\r\nbutton:/01010101/00000033 turns into a form with one visible button that POSTs to this URL with the link of \'times\' as an arg.  That causes the server to evaluate the Joy expression in the text of \'times\' in the context of...  this page?  the server?  the "toplevel" of this page?  I dunno yet..\r\n has:/00000000/00000019 inset:/00000000/00000021 /00000000/00000003\r\ndoor:/00000000/00000020\r\n\r\ncss:/12345678/12395679'
p217
sS'title'
p218
S'Eumirion'
p219
ssg32
S'<html><head><title>Eumirion</title><style>.door-link { border: 1px solid black; background: tan; }\r\n.door-link:hover { border: 1px solid orange; background: black; color: tan; }\r\n/*css:/12345678/12395681*/</style></head><body><h1><a href="/00000000/00000000">Eumirion</a></h1><div><p>Home</p><p>Click here to parametrically create a solar system. <a href="/77700000/00000000">Parametric Creation Of Content, Including Planets</a></p><p>unknown action "button:"<a href="/01010101/00000033">times</a> turns into a form with one visible button that POSTs to this URL with the link of \'times\' as an arg.  That causes the server to evaluate the Joy expression in the text of \'times\' in the context of...  this page?  the server?  the "toplevel" of this page?  I dunno yet..</p><p> unknown action "has:"<a href="/00000000/00000019">Excelsior</a> unknown action "inset:"<a href="/00000000/00000021">Thronestar</a> <a href="/00000000/00000003">Is This An Index?</a></p><p><a class="door-link" href="/00000000/00000020">[This Is The Outer Limits]</a></p><p></p><p></p></div><hr><form action="/00000000/00000000" method="POST"><h4>Edit</h4><label for="title">Title:</label><input name="title" placeholder="You can use the editor below to write some text..." size="44" type="text" value="Eumirion"><br><label for="text">Text:</label><br><textarea cols="58" name="text" placeholder="Write something..." rows="15">Home\r\nClick here to parametrically create a solar system. /77700000/00000000\r\nbutton:/01010101/00000033 turns into a form with one visible button that POSTs to this URL with the link of \'times\' as an arg.  That causes the server to evaluate the Joy expression in the text of \'times\' in the context of...  this page?  the server?  the "toplevel" of this page?  I dunno yet..\r\n has:/00000000/00000019 inset:/00000000/00000021 /00000000/00000003\r\ndoor:/00000000/00000020\r\n\r\ncss:/12345678/12395679</textarea><br><input name="fake_out_caching" type="hidden" value="4280355820"><input type="submit" value="post"></form></body></html>'
p220
sg34
g4
sbs(I305419896
I305747577
tp221
g0
(g10
g2
Ntp222
Rp223
(dp224
g14
(dp225
S'text'
p226
S'.door-link { border: 1px solid black; background: tan; }\r\n.door-link:hover { border: 1px solid orange; background: black; color: tan; }\r\n/*css:/12345678/12395681*/'
p227
sS'title'
p228
S'Door Css'
p229
ssg32
S'<html><head><title>Door Css</title><style>p {\r\n  margin: 0px;\r\n}\r\n \r\ndiv { background: #ffa; }\r\n\r\n/*css:/12345678/12395681*/</style></head><body><h1><a href="/12345678/12395679">Door Css</a></h1><div><p>.door-link { border: 1px solid black; background: tan; }</p><p>.door-link:hover { border: 1px solid orange; background: black; color: tan; }</p><p>/**/</p></div><hr><form action="/12345678/12395679" method="POST"><h4>Edit</h4><label for="title">Title:</label><input name="title" placeholder="No Title" size="44" type="text" value="Door Css"><br><label for="text">Text:</label><br><textarea cols="58" name="text" placeholder="Write something..." rows="15">.door-link { border: 1px solid black; background: tan; }\r\n.door-link:hover { border: 1px solid orange; background: black; color: tan; }\r\n/*css:/12345678/12395681*/</textarea><br><input name="fake_out_caching" type="hidden" value="2507020139"><input type="submit" value="post"></form></body></html>'
p230
sg34
g4
sbs(I16843009
I51
tp231
g0
(g10
g2
Ntp232
Rp233
(dp234
g14
(dp235
g60
S'[-- dip] cons [swap] infra [0 >] swap while pop\r\n\r\nDo something n times.\r\n\r\ncss:/12345678/01010101'
p236
sg62
S'times'
p237
ssg32
S'<html><head><title>times</title><style>body { background:#cfc; }</style></head><body><h1><a href="/01010101/00000033">times</a></h1><div><p>[-- dip] cons [swap] infra [0 &gt;] swap while pop</p><p></p><p>Do something n times.</p><p></p><p></p></div><hr><form action="/01010101/00000033" method="POST"><h4>Edit</h4><label for="title">Title:</label><input name="title" placeholder="No Title" size="44" type="text" value="times"><br><label for="text">Text:</label><br><textarea cols="58" name="text" placeholder="Write something..." rows="15">[-- dip] cons [swap] infra [0 &gt;] swap while pop\r\n\r\nDo something n times.\r\n\r\ncss:/12345678/01010101</textarea><br><input name="fake_out_caching" type="hidden" value="471531137"><input type="submit" value="post"></form></body></html>'
p238
sg34
g4
sbs(I16843010
I2
tp239
g0
(g10
g2
Ntp240
Rp241
(dp242
g14
(dp243
S'text'
p244
S'command:/01010101/00000035css:/12345678/01010101'
p245
sS'title'
p246
S'Template for commands.'
p247
ssg32
S'<html><head><title>Template for commands.</title><style>body { background:#cfc; }</style></head><body><h1><a href="/01010102/00000002">Template for commands.</a></h1><div><p><form action="/01010102/00000002" class="command" method="POST"><input name="fake_out_caching" type="hidden" value="3629048052"><input name="command" type="hidden" value="/01010101/00000035"><input type="submit" value="clear"></form></p></div><hr><form action="/01010102/00000002" method="POST"><h4>Edit</h4><label for="title">Title:</label><input name="title" placeholder="You can use the editor below to write some text..." size="44" type="text" value="Template for commands."><br><label for="text">Text:</label><br><textarea cols="58" name="text" placeholder="Write something..." rows="15">command:/01010101/00000035css:/12345678/01010101</textarea><br><input name="fake_out_caching" type="hidden" value="1836385450"><input type="submit" value="post"></form></body></html>'
p248
sg34
g4
sbs(I0
I3405691582
tp249
g0
(g10
g2
Ntp250
Rp251
(dp252
g14
(dp253
S'text'
p254
S'very young red dragon grab helpless goblin as guide through the human world'
p255
sS'title'
p256
S'warrior dark elf'
p257
ssg32
S'<html><head><title>warrior dark elf</title></head><body><h1><a href="/00000000/cafebabe">warrior dark elf</a></h1><div><p>very young red dragon grab helpless goblin as guide through the human world</p></div><hr><form action="/00000000/cafebabe" method="POST"><h4>Edit</h4><label for="title">Title:</label><input name="title" placeholder="No Title" size="44" type="text" value="warrior dark elf"><br><label for="text">Text:</label><br><textarea cols="58" name="text" placeholder="Write something..." rows="15">very young red dragon grab helpless goblin as guide through the human world</textarea><br><input name="fake_out_caching" type="hidden" value="1433741694"><input type="submit" value="post"></form></body></html>'
p258
sg34
g4
sbs(I0
I3
tp259
g0
(g10
g2
Ntp260
Rp261
(dp262
g14
(dp263
S'text'
p264
S'index:/00000000/cafebabe'
p265
sS'title'
p266
S'Is This An Index?'
p267
ssg32
S'<html><head><title>Is This An Index?</title></head><body><h1><a href="/00000000/00000003">Is This An Index?</a></h1><div><ol><li><a href="/00000000/00000000">Eumirion</a><ol><li><a href="/00000000/00000003">Is This An Index?</a></li><li><a href="/00000000/00000019">Excelsior</a></li><li><a href="/00000000/00000020">This Is The Outer Limits</a></li><li><a href="/00000000/00000021">Thronestar</a></li><li><a href="/00000000/00080020">Control Panel Testing</a></li><li><a href="/00000000/cafebabe">warrior dark elf</a></li></ol></li><li><a href="/00171000/00000000">Try the new stuff</a><ol><li><a href="/00171000/00000001">Bananas</a></li><li><a href="/00171000/00000002">A List</a></li><li><a href="/00171000/00000003">Some other junk.</a></li></ol></li><li><a href="/01010101/00000000">Joy Code</a><ol><li><a href="/01010101/00000001">01</a></li><li><a href="/01010101/00000033">times</a></li><li><a href="/01010101/00000035">clear</a></li><li><a href="/01010101/00000037">first</a></li><li><a href="/01010101/00000038">enstacken</a></li><li><a href="/01010101/00000039">4d6</a></li><li><a href="/01010101/00000040">Roll four six-siders.</a></li></ol></li><li><a href="/01010102/00000000">jump to /01010102/00000000</a><ol><li><a href="/01010102/00000002">Template for commands.</a></li></ol></li><li><a href="/12344678/00000000">And then...</a><ol></ol></li><li><a href="/12345678/00000000">Csses</a><ol><li><a href="/12345678/00000023">command form CSS</a></li><li><a href="/12345678/01010101">Joy Css</a></li><li><a href="/12345678/12345678">Brobignagian</a></li><li><a href="/12345678/12395678">Some CSS</a></li><li><a href="/12345678/12395679">Door Css</a></li><li><a href="/12345678/12395680">jump to /12345678/12395680</a></li><li><a href="/12345678/12395681">CSS CSS</a></li></ol></li><li><a href="/72300000/00000000">Whoops</a><ol></ol></li><li><a href="/77700000/00000000">Parametric Creation Of Content, Including Planets</a><ol></ol></li><li><a href="/88880000/00000000">Spaceships</a><ol><li><a href="/88880000/00000001">The TARDIS</a></li></ol></li></ol></div><hr><form action="/00000000/00000003" method="POST"><h4>Edit</h4><label for="title">Title:</label><input name="title" placeholder="You can use the editor below to write some text..." size="44" type="text" value="Is This An Index?"><br><label for="text">Text:</label><br><textarea cols="58" name="text" placeholder="Write something..." rows="15">index:/00000000/cafebabe</textarea><br><input name="fake_out_caching" type="hidden" value="1403585274"><input type="submit" value="post"></form></body></html>'
p268
sg34
g4
sbs(I16843009
I1
tp269
g0
(g10
g2
Ntp270
Rp271
(dp272
g14
(dp273
S'text'
p274
S'0 1  ;text:/01010102/00000002'
p275
sS'joy'
p276
(I0
(I1
(ttp277
tp278
sS'title'
p279
S'01'
p280
ssg32
S'<html><head><title>01</title><style>body { background:#cfc; }</style></head><body><h1><a href="/01010101/00000001">01</a></h1><div><p>0 1  ;<p><form action="/01010101/00000001" class="command" method="POST"><input name="fake_out_caching" type="hidden" value="41567031"><input name="command" type="hidden" value="/01010101/00000035"><input type="submit" value="clear"></form></p></p></div><hr><form action="/01010101/00000001" method="POST"><h4>Edit</h4><label for="title">Title:</label><input name="title" placeholder="You can use the editor below to write some text..." size="44" type="text" value="01"><br><label for="text">Text:</label><br><textarea cols="58" name="text" placeholder="Write something..." rows="15">0 1  ;text:/01010102/00000002</textarea><br><input name="fake_out_caching" type="hidden" value="2537374234"><input type="submit" value="post"></form></body></html>'
p281
sg34
g4
sbs(I0
I33
tp282
g0
(g10
g2
Ntp283
Rp284
(dp285
g14
(dp286
S'text'
p287
S'The massive black hole at the center of each galaxy is called the "Thronestar"..  Time slows down near the event horizon of such a titanic mass and galactic civilizations seek proximity to it as a means of prolonging existance.\r\ntext:/00000000/00080020\r\ncss:/12345678/12395678\r\nstack:/00000000/00000021'
p288
sS'stack'
p289
(tsS'title'
p290
S'Thronestar'
p291
ssg32
S'<html><head><title>Thronestar</title><style>form.command { display: inline; padding: 0.5em; }</style><style>@import url(http://fonts.googleapis.com/css?family=EB+Garamond);\r\n\r\nbody {\r\n  background: black;\r\n  color: #00ff00;\r\n  font-family: \'EB Garamond\', serif;\r\n  font-size: 133%;\r\n}\r\n\r\ndiv {\r\n  border: 0.1em solid;\r\n  border-radius: 3em;\r\n  padding: 1.25em 2.25em 1.25em 2.25em;\r\n}\r\n\r\n/*css:/12345678/12395681*/</style></head><body><h1><a href="/00000000/00000021">Thronestar</a></h1><div><p>The massive black hole at the center of each galaxy is called the "Thronestar"..  Time slows down near the event horizon of such a titanic mass and galactic civilizations seek proximity to it as a means of prolonging existance.</p><p><p><form action="/00000000/00000021" class="command" method="POST"><input name="fake_out_caching" type="hidden" value="283296855"><input name="command" type="hidden" value="/01010101/00000001"><input type="submit" value="01"></form> <form action="/00000000/00000021" class="command" method="POST"><input name="fake_out_caching" type="hidden" value="2146222775"><input name="command" type="hidden" value="/01010101/00000035"><input type="submit" value="clear"></form> <form action="/00000000/00000021" class="command" method="POST"><input name="fake_out_caching" type="hidden" value="1146893214"><input name="command" type="hidden" value="/01010101/00000037"><input type="submit" value="first"></form> <form action="/00000000/00000021" class="command" method="POST"><input name="fake_out_caching" type="hidden" value="518449896"><input name="command" type="hidden" value="/01010101/00000038"><input type="submit" value="enstacken"></form></p><p><ol></ol></p><p></p><p></p></p><p></p><p><ol></ol></p></div><hr><form action="/00000000/00000021" method="POST"><h4>Edit</h4><label for="title">Title:</label><input name="title" placeholder="You can use the editor below to write some text..." size="44" type="text" value="Thronestar"><br><label for="text">Text:</label><br><textarea cols="58" name="text" placeholder="Write something..." rows="15">The massive black hole at the center of each galaxy is called the "Thronestar"..  Time slows down near the event horizon of such a titanic mass and galactic civilizations seek proximity to it as a means of prolonging existance.\r\ntext:/00000000/00080020\r\ncss:/12345678/12395678\r\nstack:/00000000/00000021</textarea><br><input name="fake_out_caching" type="hidden" value="3539956530"><input type="submit" value="post"></form></body></html>'
p292
sg34
g4
sbs(I2290614272
I1
tp293
g0
(g10
g2
Ntp294
Rp295
(dp296
g14
(dp297
g50
S'Technically not a spaceship.'
p298
sg52
S'The TARDIS'
p299
ssg32
S'<html><head><title>The Tardis</title></head><body><h1><a href="/88880000/00000001">The Tardis</a></h1><div><p>Technically not a spaceship.</p></div><hr><form action="/88880000/00000001" method="POST"><h4>Edit</h4><label for="title">Title:</label><input name="title" placeholder="No Title" size="44" type="text" value="The Tardis"><br><label for="text">Text:</label><br><textarea cols="88" name="text" placeholder="Write something..." rows="5">Technically not a spaceship.</textarea><br><input name="fake_out_caching" type="hidden" value="60472379"><input type="submit" value="post"></form></body></html>'
p300
sg34
g4
sbs(I1915748352
I0
tp301
g0
(g10
g2
Ntp302
Rp303
(dp304
g14
(dp305
S'text'
p306
S"Go to /00000000/00000000\r\n\r\nRemove the space between 'text:' and /72300000/00000000 in the link below to see the error that happens when there is a loop in the text tree:\r\ntext:/72300000/00000000"
p307
sS'title'
p308
S'Whoops'
p309
ssg32
S'<html><head><title>Whoops</title></head><body><h1><a href="/72300000/00000000">Whoops</a></h1><div><p>Go to </p><a href="/00000000/00000000">Eumirion</a><p>Remove the space between \'text:\' and </p><a href="/72300000/00000000">Whoops</a><p> in the link below to see the error that happens when there is a loop in the text tree:</p><p>text: </p><a href="/72300000/00000000">Whoops</a></div><hr><form action="/72300000/00000000" method="POST"><h4>Edit</h4><label for="title">Title:</label><input name="title" placeholder="You can use the editor below to write some text..." size="44" type="text" value="Whoops"><br><label for="text">Text:</label><br><textarea cols="58" name="text" placeholder="Write something..." rows="15">Go to /00000000/00000000\r\n\r\nRemove the space between \'text:\' and /72300000/00000000 in the link below to see the error that happens when there is a loop in the text tree:\r\ntext: /72300000/00000000</textarea><br><input name="fake_out_caching" type="hidden" value="2932542722"><input type="submit" value="post"></form></body></html>'
p310
sg34
g4
sbs(I0
I25
tp311
g0
(g10
g2
Ntp312
Rp313
(dp314
g14
(dp315
g216
S'A spaceship.\r\n\r\nDocked in orbit around /00000000/00000000.'
p316
sg218
S'Excelsior'
p317
ssg32
S'<html><head><title>Excelsior</title></head><body><h1><a href="/00000000/00000019">Excelsior</a></h1><div><p>A spaceship.</p><p></p><p>Docked in orbit around <a href="/00000000/00000000">Eumirion</a>.</p></div><hr><form action="/00000000/00000019" method="POST"><h4>Edit</h4><label for="title">Title:</label><input name="title" placeholder="No Title" size="44" type="text" value="Excelsior"><br><label for="text">Text:</label><br><textarea cols="88" name="text" placeholder="Write something..." rows="5">A spaceship.\r\n\r\nDocked in orbit around /00000000/00000000.</textarea><br><input name="fake_out_caching" type="hidden" value="234453159"><input type="submit" value="post"></form></body></html>'
p318
sg34
g4
sbs(I1511424
I3
tp319
g0
(g10
g2
Ntp320
Rp321
(dp322
g14
(dp323
S'text'
p324
S'p:/00171000/00000001\r\ndiv:/00171000/00000001\r\ntext:/00171000/00000001'
p325
sS'title'
p326
S'Some other junk.'
p327
ssg32
S'<html><head><title>Some other junk.</title></head><body><h1><a href="/00171000/00000003">Some other junk.</a></h1><div><p>Bananas are delicious.</p>\r\n<div>Bananas are delicious.</div>\r\nBananas are delicious.</div><hr><form action="/00171000/00000003" method="POST"><h4>Edit</h4><label for="title">Title:</label><input name="title" placeholder="You can use the editor below to write some text..." size="44" type="text" value="Some other junk."><br><label for="text">Text:</label><br><textarea cols="58" name="text" placeholder="Write something..." rows="15">p:/00171000/00000001\r\ndiv:/00171000/00000001\r\ntext:/00171000/00000001</textarea><br><input name="fake_out_caching" type="hidden" value="3068731307"><input type="submit" value="post"></form></body></html>'
p328
sg34
g4
sbs(I0
I32
tp329
g0
(g10
g2
Ntp330
Rp331
(dp332
g14
(dp333
g216
S"Not really, that's a TV show.\r\njump to /12345678/12345678\r\nbasil\r\ntext:/12345678/12345678\r\n"
p334
sg218
S'This Is The Outer Limits'
p335
ssg32
S'<html><head><title>This Is The Outer Limits</title><style>@import url(http://fonts.googleapis.com/css?family=EB+Garamond);\r\n\r\nbody {\r\n  background: black;\r\n  color: #00ff00;\r\n  font-family: \'EB Garamond\', serif;\r\n  font-size: 133%;\r\n}\r\n\r\ndiv {\r\n  border: 0.1em solid;\r\n  border-radius: 3em;\r\n  padding: 1.25em 2.25em 1.25em 2.25em;\r\n}\r\n\r\n/*css:/12345678/12395681*/</style><style>.door-link { border: 1px solid black; background: tan; }\r\n.door-link:hover { border: 1px solid orange; background: black; color: tan; }\r\n/*css:/12345678/12395681*/</style></head><body><h1><a href="/00000000/00000020">This Is The Outer Limits</a></h1><div><p>Not really, that\'s a TV show.</p><p>jump to <a href="/12345678/12345678">Brobignagian</a></p><p>basil</p><p><p>Very large and slightly awkward.</p><p></p><p></p><p></p><p><a href="/00000000/00000000">Eumirion</a></p><p></p><p><a class="door-link" href="/00000000/00000020">[This Is The Outer Limits]</a></p><p></p><p></p></p></div><hr><form action="/00000000/00000020" method="POST"><h4>Edit</h4><label for="title">Title:</label><input name="title" placeholder="You can use the editor below to write some text..." size="44" type="text" value="This Is The Outer Limits"><br><label for="text">Text:</label><br><textarea cols="58" name="text" placeholder="Write something..." rows="15">Not really, that\'s a TV show.\r\njump to /12345678/12345678\r\nbasil\r\ntext:/12345678/12345678\r\n</textarea><br><input name="fake_out_caching" type="hidden" value="836457097"><input type="submit" value="post"></form></body></html>'
p336
sg34
g4
sbs(I305419896
I0
tp337
g0
(g10
g2
Ntp338
Rp339
(dp340
g14
(dp341
g50
S'index:/12345678/cafebabe'
p342
sg52
S'Csses'
p343
ssg32
S'<html><head><title>Csses</title></head><body><h1><a href="/12345678/00000000">Csses</a></h1><div><p><ol><li><a href="/12345678/00000000">Csses</a><ol><li><a href="/12345678/12345678">Brobignagian</a></li><li><a href="/12345678/12395678">Some Css</a></li><li><a href="/12345678/12395679">Door Css</a></li></ol></li></ol></p></div><hr><form action="/12345678/00000000" method="POST"><h4>Edit</h4><label for="title">Title:</label><input name="title" placeholder="No Title" size="44" type="text" value="Csses"><br><label for="text">Text:</label><br><textarea cols="88" name="text" placeholder="Write something..." rows="5">index:/12345678/cafebabe</textarea><br><input name="fake_out_caching" type="hidden" value="925644716"><input type="submit" value="post"></form></body></html>'
p344
sg34
g4
sbs(I2003828736
I0
tp345
g0
(g10
g2
Ntp346
Rp347
(dp348
g14
(dp349
S'text'
p350
S'I want to provide tools that can be used in-server to parametrically create things like star systems, species, artifacts and phenomenon, etc... using e.g. 2d6 5d12 1d20 &c. D&D-style "dice" and charts.  Maybe pull content from fan wikis of sci-fi shows and books etc...\r\n\r\ncommand:/01010101/00000040command:/01010101/00000035\r\n\r\ncss:/12345678/12395678css:/12345678/00000023\r\nParametric dice are easy to make, along with tables and ways to sample from the tables to build new content and load it into the server.\r\nstack:/77700000/00000000'
p351
sS'joy'
p352
(tsS'title'
p353
S'Parametric Creation Of Content, Including Planets'
p354
ssg32
S'<html><head><title>Parametric Creation Of Content, Including Planets</title><style>@import url(http://fonts.googleapis.com/css?family=EB+Garamond);\r\n\r\nbody {\r\n  background: black;\r\n  color: #00ff00;\r\n  font-family: \'EB Garamond\', serif;\r\n  font-size: 133%;\r\n}\r\n\r\ndiv {\r\n  border: 0.1em solid;\r\n  border-radius: 3em;\r\n  padding: 1.25em 2.25em 1.25em 2.25em;\r\n}\r\n\r\n/*css:/12345678/12395681*/</style><style>form.command { display: inline; padding: 0.5em; }</style></head><body><h1><a href="/77700000/00000000">Parametric Creation Of Content, Including Planets</a></h1><div><p>I want to provide tools that can be used in-server to parametrically create things like star systems, species, artifacts and phenomenon, etc... using e.g. 2d6 5d12 1d20 &amp;c. D&amp;D-style "dice" and charts.  Maybe pull content from fan wikis of sci-fi shows and books etc...</p><form action="/77700000/00000000" class="command" method="POST"><input name="fake_out_caching" type="hidden" value="1883485156"><input name="command" type="hidden" value="/01010101/00000040"><input type="submit" value="Roll four six-siders."></form><form action="/77700000/00000000" class="command" method="POST"><input name="fake_out_caching" type="hidden" value="3585499709"><input name="command" type="hidden" value="/01010101/00000035"><input type="submit" value="clear"></form><p>Parametric dice are easy to make, along with tables and ways to sample from the tables to build new content and load it into the server.</p><ol></ol></div><hr><form action="/77700000/00000000" method="POST"><h4>Edit</h4><label for="title">Title:</label><input name="title" placeholder="You can use the editor below to write some text..." size="44" type="text" value="Parametric Creation Of Content, Including Planets"><br><label for="text">Text:</label><br><textarea cols="58" name="text" placeholder="Write something..." rows="15">I want to provide tools that can be used in-server to parametrically create things like star systems, species, artifacts and phenomenon, etc... using e.g. 2d6 5d12 1d20 &amp;c. D&amp;D-style "dice" and charts.  Maybe pull content from fan wikis of sci-fi shows and books etc...\r\n\r\ncommand:/01010101/00000040command:/01010101/00000035\r\n\r\ncss:/12345678/12395678css:/12345678/00000023\r\nParametric dice are easy to make, along with tables and ways to sample from the tables to build new content and load it into the server.\r\nstack:/77700000/00000000</textarea><br><input name="fake_out_caching" type="hidden" value="1500956151"><input type="submit" value="post"></form></body></html>'
p355
sg34
g4
sbs(I16843009
I0
tp356
g0
(g10
g2
Ntp357
Rp358
(dp359
g14
(dp360
g60
S'a b [c d] [e f] while\r\ncss:/12345678/01010101'
p361
sg62
S'Joy Code'
p362
ssg32
S'<html><head><title>Joy Code</title><style>body { background:#cfc; }</style></head><body><h1><a href="/01010101/00000000">Joy Code</a></h1><div><p>a b [c d] [e f] while</p><p></p></div><hr><form action="/01010101/00000000" method="POST"><h4>Edit</h4><label for="title">Title:</label><input name="title" placeholder="No Title" size="44" type="text" value="Joy Code"><br><label for="text">Text:</label><br><textarea cols="88" name="text" placeholder="Write something..." rows="5">a b [c d] [e f] while\r\ncss:/12345678/01010101</textarea><br><input name="fake_out_caching" type="hidden" value="1219654015"><input type="submit" value="post"></form></body></html>'
p363
sg34
g4
sbs(I1511424
I1
tp364
g0
(g10
g2
Ntp365
Rp366
(dp367
g14
(dp368
g129
S'Bananas are delicious.'
p369
sg131
S'Bananas'
p370
ssg32
S'<html><head><title>Bananas</title></head><body><h1><a href="/00171000/00000001">Bananas</a></h1><div>Bananas are delicious.</div><hr><form action="/00171000/00000001" method="POST"><h4>Edit</h4><label for="title">Title:</label><input name="title" placeholder="You can use the editor below to write some text..." size="44" type="text" value="Bananas"><br><label for="text">Text:</label><br><textarea cols="58" name="text" placeholder="Write something..." rows="15">Bananas are delicious.</textarea><br><input name="fake_out_caching" type="hidden" value="2132820238"><input type="submit" value="post"></form></body></html>'
p371
sg34
g4
sbs(I16843009
I53
tp372
g0
(g10
g2
Ntp373
Rp374
(dp375
g14
(dp376
g254
S'clear ;joy:/01010101/00000035text:/01010102/00000002'
p377
sg276
(g0
(g21
g2
Ntp378
Rp379
(dp380
g25
S'clear'
p381
sg27
g156
sb(ttp382
sg256
S'clear'
p383
ssg32
S'<html><head><title>clear</title><style>body { background:#cfc; }</style></head><body><h1><a href="/01010101/00000035">clear</a></h1><div>clear ;<form action="/01010101/00000035" class="command" method="POST"><input name="fake_out_caching" type="hidden" value="3164265784"><input name="command" type="hidden" value="/01010101/00000035"><input type="submit" value="clear"></form></div><hr><form action="/01010101/00000035" method="POST"><h4>Edit</h4><label for="title">Title:</label><input name="title" placeholder="You can use the editor below to write some text..." size="44" type="text" value="clear"><br><label for="text">Text:</label><br><textarea cols="58" name="text" placeholder="Write something..." rows="15">clear ;joy:/01010101/00000035text:/01010102/00000002</textarea><br><input name="fake_out_caching" type="hidden" value="883333796"><input type="submit" value="post"></form></body></html>'
p384
sg34
g4
sbs(I305415800
I0
tp385
g0
(g10
g2
Ntp386
Rp387
(dp388
g14
(dp389
S'text'
p390
S'You add zee content!'
p391
sS'title'
p392
S'And then...'
p393
ssg32
S'<html><head><title>And then...</title></head><body><h1><a href="/12344678/00000000">And then...</a></h1><div><p>You add zee content!</p></div><hr><form action="/12344678/00000000" method="POST"><h4>Edit</h4><label for="title">Title:</label><input name="title" placeholder="You can use the editor below to write some text..." size="44" type="text" value="And then..."><br><label for="text">Text:</label><br><textarea cols="58" name="text" placeholder="Write something..." rows="15">You add zee content!</textarea><br><input name="fake_out_caching" type="hidden" value="2346855653"><input type="submit" value="post"></form></body></html>'
p394
sg34
g4
sbs(I305419896
I305419896
tp395
g0
(g10
g2
Ntp396
Rp397
(dp398
g14
(dp399
S'text'
p400
S'Very large and slightly awkward.\r\ncss:/12345678/12395678\r\n\r\n\r\n/00000000/00000000\r\n\r\ndoor:/00000000/00000020\r\n\r\ncss:/12345678/12395679'
p401
sS'title'
p402
S'Brobignagian'
p403
ssg32
S'<html><head><title>Brobignagian</title><style>@import url(http://fonts.googleapis.com/css?family=EB+Garamond);\r\n\r\nbody {\r\n  background: black;\r\n  color: #00ff00;\r\n  font-family: \'EB Garamond\', serif;\r\n  font-size: 133%;\r\n}\r\n\r\ndiv {\r\n  border: 0.1em solid;\r\n  border-radius: 3em;\r\n  padding: 1.25em 2.25em 1.25em 2.25em;\r\n}\r\n\r\n/*css:/12345678/12395681*/</style><style>.door-link { border: 1px solid black; background: tan; }\r\n.door-link:hover { border: 1px solid orange; background: black; color: tan; }\r\n/*css:/12345678/12395681*/</style></head><body><h1><a href="/12345678/12345678">Brobignagian</a></h1><div><p>Very large and slightly awkward.</p><p></p><p></p><p></p><p><a href="/00000000/00000000">Eumirion</a></p><p></p><p><a class="door-link" href="/00000000/00000020">[This Is The Outer Limits]</a></p><p></p><p></p></div><hr><form action="/12345678/12345678" method="POST"><h4>Edit</h4><label for="title">Title:</label><input name="title" placeholder="No Title" size="44" type="text" value="Brobignagian"><br><label for="text">Text:</label><br><textarea cols="58" name="text" placeholder="Write something..." rows="15">Very large and slightly awkward.\r\ncss:/12345678/12395678\r\n\r\n\r\n/00000000/00000000\r\n\r\ndoor:/00000000/00000020\r\n\r\ncss:/12345678/12395679</textarea><br><input name="fake_out_caching" type="hidden" value="1860503211"><input type="submit" value="post"></form></body></html>'
p404
sg34
g4
sbs(I305419896
I35
tp405
g0
(g10
g2
Ntp406
Rp407
(dp408
g14
(dp409
g254
S'form.command { display: inline; padding: 0.5em; }'
p410
sg256
S'command form CSS'
p411
ssg32
S'<html><head><title>command form CSS</title></head><body><h1><a href="/12345678/00000023">command form CSS</a></h1><div><p>form.command { display: inline; padding: 0.5em; }</p></div><hr><form action="/12345678/00000023" method="POST"><h4>Edit</h4><label for="title">Title:</label><input name="title" placeholder="No Title" size="44" type="text" value="command form CSS"><br><label for="text">Text:</label><br><textarea cols="58" name="text" placeholder="Write something..." rows="15">form.command { display: inline; padding: 0.5em; }</textarea><br><input name="fake_out_caching" type="hidden" value="3229924183"><input type="submit" value="post"></form></body></html>'
p412
sg34
g4
sbs(I305419896
I305747576
tp413
g0
(g10
g2
Ntp414
Rp415
(dp416
g14
(dp417
S'text'
p418
S"@import url(http://fonts.googleapis.com/css?family=EB+Garamond);\r\n\r\nbody {\r\n  background: black;\r\n  color: #00ff00;\r\n  font-family: 'EB Garamond', serif;\r\n  font-size: 133%;\r\n}\r\n\r\ndiv {\r\n  border: 0.1em solid;\r\n  border-radius: 3em;\r\n  padding: 1.25em 2.25em 1.25em 2.25em;\r\n}\r\n\r\n/*css:/12345678/12395681*/"
p419
sS'title'
p420
S'Some CSS'
p421
ssg32
S'<html><head><title>Some CSS</title><style>p {\r\n  margin: 0px;\r\n}\r\n \r\ndiv { background: #ffa; }\r\n\r\n/*css:/12345678/12395681*/</style></head><body><h1><a href="/12345678/12395678">Some CSS</a></h1><div><p>@import url(http://fonts.googleapis.com/css?family=EB+Garamond);</p><p></p><p>body {</p><p>  background: black;</p><p>  color: #00ff00;</p><p>  font-family: \'EB Garamond\', serif;</p><p>  font-size: 133%;</p><p>}</p><p></p><p>div {</p><p>  border: 0.1em solid;</p><p>  border-radius: 3em;</p><p>  padding: 1.25em 2.25em 1.25em 2.25em;</p><p>}</p><p></p><p>/**/</p></div><hr><form action="/12345678/12395678" method="POST"><h4>Edit</h4><label for="title">Title:</label><input name="title" placeholder="No Title" size="44" type="text" value="Some CSS"><br><label for="text">Text:</label><br><textarea cols="58" name="text" placeholder="Write something..." rows="15">@import url(http://fonts.googleapis.com/css?family=EB+Garamond);\r\n\r\nbody {\r\n  background: black;\r\n  color: #00ff00;\r\n  font-family: \'EB Garamond\', serif;\r\n  font-size: 133%;\r\n}\r\n\r\ndiv {\r\n  border: 0.1em solid;\r\n  border-radius: 3em;\r\n  padding: 1.25em 2.25em 1.25em 2.25em;\r\n}\r\n\r\n/*css:/12345678/12395681*/</textarea><br><input name="fake_out_caching" type="hidden" value="1459831538"><input type="submit" value="post"></form></body></html>'
p422
sg34
g4
sbs(I305419896
I305747584
tp423
g0
(g10
g2
Ntp424
Rp425
(dp426
g14
(dp427
g40
S''
p428
sg42
g428
ssg32
S'<html><head><title>/12345678/12395680</title></head><body><h1><a href="/12345678/12395680">No Title</a></h1><div><p class="default-text">You can use the editor below to write some text...</p></div><hr><form action="/12345678/12395680" method="POST"><h4>Edit</h4><label for="title">Title:</label><input name="title" placeholder="No Title" size="44" type="text" value=""><br><label for="text">Text:</label><br><textarea cols="58" name="text" placeholder="Write something..." rows="15"></textarea><br><input name="fake_out_caching" type="hidden" value="681643869"><input type="submit" value="post"></form></body></html>'
p429
sg34
g4
sbs(I1511424
I2
tp430
g0
(g10
g2
Ntp431
Rp432
(dp433
g14
(dp434
g324
S'li:/00171000/00000001\r\nli:/00171000/00000003\r\nli:/00171000/00000001'
p435
sg326
S'A List'
p436
ssg32
S'<html><head><title>A List</title></head><body><h1><a href="/00171000/00000002">A List</a></h1><div><li>Bananas are delicious.</li>\r\n<li><p>Bananas are delicious.</p>\r\n<div>Bananas are delicious.</div>\r\nBananas are delicious.</li>\r\n<li>Bananas are delicious.</li></div><hr><form action="/00171000/00000002" method="POST"><h4>Edit</h4><label for="title">Title:</label><input name="title" placeholder="You can use the editor below to write some text..." size="44" type="text" value="A List"><br><label for="text">Text:</label><br><textarea cols="58" name="text" placeholder="Write something..." rows="15">li:/00171000/00000001\r\nli:/00171000/00000003\r\nli:/00171000/00000001</textarea><br><input name="fake_out_caching" type="hidden" value="46902788"><input type="submit" value="post"></form></body></html>'
p437
sg34
g4
sbssS'pather'
p438
ceumi.server
pather
p439
sS'page_renderer'
p440
ceumi.page
Page
p441
sS'modified'
p442
I00
sb.