ccopy_reg
_reconstructor
p0
(ceumi.server
EumiServer
p1
c__builtin__
object
p2
Ntp3
Rp4
(dp5
S'debug'
p6
I00
sS'router'
p7
(dp8
(I16843009
I57
tp9
g0
(ceumi.server
PageHandler
p10
g2
Ntp11
Rp12
(dp13
S'data'
p14
(dp15
S'text'
p16
S'4 6 d ;joy:/01010101/00000039text:/01010102/00000002'
p17
sS'joy'
p18
(I4
(I6
(g0
(ceumi.joy.functions
FunctionWrapper
p19
g2
Ntp20
Rp21
(dp22
S'name'
p23
S'd'
p24
sS'f'
p25
ceumi.joy.morewords
d
p26
sb(ttp27
tp28
tp29
sS'title'
p30
S'4d6'
p31
ssS'response'
p32
S'<html><head><title>4d6</title><style>body { background:#cfc; }</style></head><body><h1><a href="/01010101/00000039">4d6</a></h1><div>4 6 d ;<form action="/01010101/00000039" class="command" method="POST"><input name="fake_out_caching" type="hidden" value="676163095"><input name="command" type="hidden" value="/01010101/00000035"><input type="submit" value="clear"></form></div><hr><form action="/01010101/00000039" method="POST"><h4>Edit</h4><label for="title">Title:</label><input name="title" placeholder="You can use the editor below to write some text..." size="44" type="text" value="4d6"><br><label for="text">Text:</label><br><textarea cols="58" name="text" placeholder="Write something..." rows="15">4 6 d ;joy:/01010101/00000039text:/01010102/00000002</textarea><br><input name="fake_out_caching" type="hidden" value="931766936"><input type="submit" value="post"></form></body></html>'
p33
sS'server'
p34
g4
sbs(I305419896
I305747585
tp35
g0
(g10
g2
Ntp36
Rp37
(dp38
g14
(dp39
S'text'
p40
S'p {\r\n  margin: 0px;\r\n}\r\n \r\ndiv { background: #ffa; }\r\n\r\n/*css:/12345678/12395681*/'
p41
sS'title'
p42
S'CSS CSS'
p43
ssg32
S'<html><head><title>CSS CSS</title><style>p {\r\n  margin: 0px;\r\n}\r\n \r\ndiv { background: #ffa; }\r\n\r\n/*css:/12345678/12395681*/</style></head><body><h1><a href="/12345678/12395681">CSS CSS</a></h1><div><p>p {</p><p>  margin: 0px;</p><p>}</p><p> </p><p>div { background: #ffa; }</p><p></p><p>/**/</p></div><hr><form action="/12345678/12395681" method="POST"><h4>Edit</h4><label for="title">Title:</label><input name="title" placeholder="No Title" size="44" type="text" value="CSS CSS"><br><label for="text">Text:</label><br><textarea cols="58" name="text" placeholder="Write something..." rows="15">p {\r\n  margin: 0px;\r\n}\r\n \r\ndiv { background: #ffa; }\r\n\r\n/*css:/12345678/12395681*/</textarea><br><input name="fake_out_caching" type="hidden" value="36988113"><input type="submit" value="post"></form></body></html>'
p44
sg34
g4
sbs(I1915748352
I0
tp45
g0
(g10
g2
Ntp46
Rp47
(dp48
g14
(dp49
S'text'
p50
S'/00000000/00000000\r\nte xt:/72300000/00000000'
p51
sS'title'
p52
S'Whoops'
p53
ssg32
S'<html><head><title>Whoops</title></head><body><h1><a href="/72300000/00000000">Whoops</a></h1><div><p><a href="/00000000/00000000">Eumirion</a></p><p>te unknown action "xt:"<a href="/72300000/00000000">Whoops</a></p></div><hr><form action="/72300000/00000000" method="POST"><h4>Edit</h4><label for="title">Title:</label><input name="title" placeholder="No Title" size="44" type="text" value="Whoops"><br><label for="text">Text:</label><br><textarea cols="88" name="text" placeholder="Write something..." rows="5">/00000000/00000000\r\nte xt:/72300000/00000000</textarea><br><input name="fake_out_caching" type="hidden" value="3111074977"><input type="submit" value="post"></form></body></html>'
p54
sg34
g4
sbs(I305419896
I16843009
tp55
g0
(g10
g2
Ntp56
Rp57
(dp58
g14
(dp59
S'text'
p60
S'body { background:#cfc; }'
p61
sS'title'
p62
S'Joy Css'
p63
ssg32
S'<html><head><title>Joy Css</title></head><body><h1><a href="/12345678/01010101">Joy Css</a></h1><div><p>body { background:#cfc; }</p></div><hr><form action="/12345678/01010101" method="POST"><h4>Edit</h4><label for="title">Title:</label><input name="title" placeholder="No Title" size="44" type="text" value="Joy Css"><br><label for="text">Text:</label><br><textarea cols="88" name="text" placeholder="Write something..." rows="5">body { background:#cfc; }</textarea><br><input name="fake_out_caching" type="hidden" value="2675289055"><input type="submit" value="post"></form></body></html>'
p64
sg34
g4
sbs(I1511424
I3
tp65
g0
(g10
g2
Ntp66
Rp67
(dp68
g14
(dp69
S'text'
p70
S'p:/00171000/00000001\r\ndiv:/00171000/00000001\r\ntext:/00171000/00000001'
p71
sS'title'
p72
S'Some other junk.'
p73
ssg32
S'<html><head><title>Some other junk.</title></head><body><h1><a href="/00171000/00000003">Some other junk.</a></h1><div><p>Bananas are delicious.</p>\r\n<div>Bananas are delicious.</div>\r\nBananas are delicious.</div><hr><form action="/00171000/00000003" method="POST"><h4>Edit</h4><label for="title">Title:</label><input name="title" placeholder="You can use the editor below to write some text..." size="44" type="text" value="Some other junk."><br><label for="text">Text:</label><br><textarea cols="58" name="text" placeholder="Write something..." rows="15">p:/00171000/00000001\r\ndiv:/00171000/00000001\r\ntext:/00171000/00000001</textarea><br><input name="fake_out_caching" type="hidden" value="3068731307"><input type="submit" value="post"></form></body></html>'
p74
sg34
g4
sbs(I1511424
I0
tp75
g0
(g10
g2
Ntp76
Rp77
(dp78
g14
(dp79
S'text'
p80
S'div:/00171000/00000001\r\np:/00171000/00000001\r\nol:/00171000/00000002\r\ntext:/00171000/00000001\r\ntext:/00171000/00000001\r\np:/00171000/00000001\r\nul:/00171000/00000002\r\ndiv:/00171000/00000001\r\ncss:/12345678/12395678'
p81
sS'title'
p82
S'Try the new stuff'
p83
ssg32
S'<html><head><title>Try the new stuff</title><style>@import url(http://fonts.googleapis.com/css?family=EB+Garamond);\r\n\r\nbody {\r\n  background: black;\r\n  color: #00ff00;\r\n  font-family: \'EB Garamond\', serif;\r\n  font-size: 133%;\r\n}\r\n\r\ndiv {\r\n  border: 0.1em solid;\r\n  border-radius: 3em;\r\n  padding: 1.25em 2.25em 1.25em 2.25em;\r\n}\r\n\r\n/*css:/12345678/12395681*/</style></head><body><h1><a href="/00171000/00000000">Try the new stuff</a></h1><div><div>Bananas are delicious.</div>\r\n<p>Bananas are delicious.</p>\r\n<ol><li>Bananas are delicious.</li>\r\n<li><p>Bananas are delicious.</p>\r\n<div>Bananas are delicious.</div>\r\nBananas are delicious.</li>\r\n<li>Bananas are delicious.</li></ol>\r\nBananas are delicious.\r\nBananas are delicious.\r\n<p>Bananas are delicious.</p>\r\n<ul><li>Bananas are delicious.</li>\r\n<li><p>Bananas are delicious.</p>\r\n<div>Bananas are delicious.</div>\r\nBananas are delicious.</li>\r\n<li>Bananas are delicious.</li></ul>\r\n<div>Bananas are delicious.</div>\r\n</div><hr><form action="/00171000/00000000" method="POST"><h4>Edit</h4><label for="title">Title:</label><input name="title" placeholder="You can use the editor below to write some text..." size="44" type="text" value="Try the new stuff"><br><label for="text">Text:</label><br><textarea cols="58" name="text" placeholder="Write something..." rows="15">div:/00171000/00000001\r\np:/00171000/00000001\r\nol:/00171000/00000002\r\ntext:/00171000/00000001\r\ntext:/00171000/00000001\r\np:/00171000/00000001\r\nul:/00171000/00000002\r\ndiv:/00171000/00000001\r\ncss:/12345678/12395678</textarea><br><input name="fake_out_caching" type="hidden" value="2035636750"><input type="submit" value="post"></form></body></html>'
p84
sg34
g4
sbs(I16843009
I56
tp85
g0
(g10
g2
Ntp86
Rp87
(dp88
g14
(dp89
S'text'
p90
S'enstacken ;text:/01010102/00000002'
p91
sS'joy'
p92
(g0
(ceumi.joy.definitions
DefinitionWrapper
p93
g2
Ntp94
Rp95
(dp96
S'body'
p97
(g0
(g19
g2
Ntp98
Rp99
(dp100
g23
S'stack'
p101
sg25
ceumi.joy.library
stack_
p102
sb((g0
(g19
g2
Ntp103
Rp104
(dp105
g23
S'clear'
p106
sg25
ceumi.joy.library
clear
p107
sb(ttp108
(g0
(g19
g2
Ntp109
Rp110
(dp111
g23
S'dip'
p112
sg25
ceumi.joy.combinators
dip
p113
sb(ttp114
tp115
tp116
sS'__name__'
p117
S'enstacken'
p118
sg23
g118
sS'__doc__'
p119
S'stack [clear] dip'
p120
sb(ttp121
sS'title'
p122
S'enstacken'
p123
ssg32
S'<html><head><title>enstacken</title><style>body { background:#cfc; }</style></head><body><h1><a href="/01010101/00000038">enstacken</a></h1><div><p>enstacken ;<p><form action="/01010101/00000038" class="command" method="POST"><input name="fake_out_caching" type="hidden" value="782127247"><input name="command" type="hidden" value="/01010101/00000035"><input type="submit" value="clear"></form></p></p></div><hr><form action="/01010101/00000038" method="POST"><h4>Edit</h4><label for="title">Title:</label><input name="title" placeholder="You can use the editor below to write some text..." size="44" type="text" value="enstacken"><br><label for="text">Text:</label><br><textarea cols="58" name="text" placeholder="Write something..." rows="15">enstacken ;text:/01010102/00000002</textarea><br><input name="fake_out_caching" type="hidden" value="2737218329"><input type="submit" value="post"></form></body></html>'
p124
sg34
g4
sbs(I0
I524320
tp125
g0
(g10
g2
Ntp126
Rp127
(dp128
g14
(dp129
S'text'
p130
S'command:/01010101/00000001 command:/01010101/00000035 command:/01010101/00000037 command:/01010101/00000038\r\ncommand:/01010101/00000039 command:/01010101/00000040\r\nstack:/00000000/00080020\r\nstackinto:/00000000/00080020\r\ncss:/12345678/00000023'
p131
sS'title'
p132
S'Control Panel Testing'
p133
sS'stack'
p134
(tsS'joy'
p135
((I3
(I2
(I2
(I2
(ttp136
tp137
tp138
tp139
((I1
(I2
(I2
(I6
(ttp140
tp141
tp142
tp143
((I4
(I4
(I2
(I5
(ttp144
tp145
tp146
tp147
((I2
(I4
(I1
(I1
(ttp148
tp149
tp150
tp151
((I6
(I4
(I1
(I5
(ttp152
tp153
tp154
tp155
((I2
(I2
(I1
(I3
(ttp156
tp157
tp158
tp159
(I17
(I19
(I16
(I15
((I1
(I0
((I1
(ttp160
(ttp161
tp162
tp163
(ttp164
tp165
tp166
tp167
tp168
tp169
tp170
tp171
tp172
tp173
tp174
ssg32
S'<html><head><title>Control Panel Testing</title><style>form.command { display: inline; padding: 0.5em; }</style></head><body><h1><a href="/00000000/00080020">Control Panel Testing</a></h1><div><form action="/00000000/00080020" class="command" method="POST"><input name="fake_out_caching" type="hidden" value="286898041"><input name="command" type="hidden" value="/01010101/00000001"><input type="submit" value="01"></form> <form action="/00000000/00080020" class="command" method="POST"><input name="fake_out_caching" type="hidden" value="3476505572"><input name="command" type="hidden" value="/01010101/00000035"><input type="submit" value="clear"></form> <form action="/00000000/00080020" class="command" method="POST"><input name="fake_out_caching" type="hidden" value="3250661144"><input name="command" type="hidden" value="/01010101/00000037"><input type="submit" value="first"></form> <form action="/00000000/00080020" class="command" method="POST"><input name="fake_out_caching" type="hidden" value="3229161522"><input name="command" type="hidden" value="/01010101/00000038"><input type="submit" value="enstacken"></form>\r\n<form action="/00000000/00080020" class="command" method="POST"><input name="fake_out_caching" type="hidden" value="3069435504"><input name="command" type="hidden" value="/01010101/00000039"><input type="submit" value="4d6"></form> <form action="/00000000/00080020" class="command" method="POST"><input name="fake_out_caching" type="hidden" value="2088319414"><input name="command" type="hidden" value="/01010101/00000040"><input type="submit" value="Roll four six-siders."></form>\r\n<ol><li>[3 2 2 2]</li><li>[1 2 2 6]</li><li>[4 4 2 5]</li><li>[2 4 1 1]</li><li>[6 4 1 5]</li><li>[2 2 1 3]</li><li>17</li><li>19</li><li>16</li><li>15</li><li>[1 0 [1]]</li></ol>\r\n[3 2 2 2][1 2 2 6][4 4 2 5][2 4 1 1][6 4 1 5][2 2 1 3]17191615[1 0 [1]]\r\n</div><hr><form action="/00000000/00080020" method="POST"><h4>Edit</h4><label for="title">Title:</label><input name="title" placeholder="You can use the editor below to write some text..." size="44" type="text" value="Control Panel Testing"><br><label for="text">Text:</label><br><textarea cols="58" name="text" placeholder="Write something..." rows="15">command:/01010101/00000001 command:/01010101/00000035 command:/01010101/00000037 command:/01010101/00000038\r\ncommand:/01010101/00000039 command:/01010101/00000040\r\nstack:/00000000/00080020\r\nstackinto:/00000000/00080020\r\ncss:/12345678/00000023</textarea><br><input name="fake_out_caching" type="hidden" value="415701595"><input type="submit" value="post"></form></body></html>'
p175
sg34
g4
sbs(I16843009
I55
tp176
g0
(g10
g2
Ntp177
Rp178
(dp179
g14
(dp180
S'text'
p181
S'first ;text:/01010102/00000002'
p182
sS'joy'
p183
(g0
(g93
g2
Ntp184
Rp185
(dp186
g97
(g0
(g19
g2
Ntp187
Rp188
(dp189
g23
S'uncons'
p190
sg25
ceumi.joy.library
uncons
p191
sb(g0
(g19
g2
Ntp192
Rp193
(dp194
g23
S'pop'
p195
sg25
ceumi.joy.library
pop
p196
sb(ttp197
tp198
sg117
S'first'
p199
sg23
g199
sg119
S'# This is ALSO one of the most basic commands.\n# It provides the first item of a sequence...\n'
p200
sb(ttp201
sS'title'
p202
S'first'
p203
ssg32
S'<html><head><title>first</title><style>body { background:#cfc; }</style></head><body><h1><a href="/01010101/00000037">first</a></h1><div><p>first ;<p><form action="/01010101/00000037" class="command" method="POST"><input name="fake_out_caching" type="hidden" value="2656798380"><input name="command" type="hidden" value="/01010101/00000035"><input type="submit" value="clear"></form></p></p></div><hr><form action="/01010101/00000037" method="POST"><h4>Edit</h4><label for="title">Title:</label><input name="title" placeholder="You can use the editor below to write some text..." size="44" type="text" value="first"><br><label for="text">Text:</label><br><textarea cols="58" name="text" placeholder="Write something..." rows="15">first ;text:/01010102/00000002</textarea><br><input name="fake_out_caching" type="hidden" value="2758267846"><input type="submit" value="post"></form></body></html>'
p204
sg34
g4
sbs(I0
I0
tp205
g0
(g10
g2
Ntp206
Rp207
(dp208
g14
(dp209
S'text'
p210
S'Home\r\nClick here to parametrically create a solar system. /77700000/00000000\r\nbutton:/01010101/00000033 turns into a form with one visible button that POSTs to this URL with the link of \'times\' as an arg.  That causes the server to evaluate the Joy expression in the text of \'times\' in the context of...  this page?  the server?  the "toplevel" of this page?  I dunno yet..\r\n has:/00000000/00000019 inset:/00000000/00000021 /00000000/00000003\r\ndoor:/00000000/00000020\r\n\r\ncss:/12345678/12395679'
p211
sS'title'
p212
S'Eumirion'
p213
ssg32
S'<html><head><title>Eumirion</title><style>.door-link { border: 1px solid black; background: tan; }\r\n.door-link:hover { border: 1px solid orange; background: black; color: tan; }\r\n/*css:/12345678/12395681*/</style></head><body><h1><a href="/00000000/00000000">Eumirion</a></h1><div><p>Home</p><p>Click here to parametrically create a solar system. <a href="/77700000/00000000">Parametric Creation Of Content, Including Planets</a></p><p>unknown action "button:"<a href="/01010101/00000033">times</a> turns into a form with one visible button that POSTs to this URL with the link of \'times\' as an arg.  That causes the server to evaluate the Joy expression in the text of \'times\' in the context of...  this page?  the server?  the "toplevel" of this page?  I dunno yet..</p><p> unknown action "has:"<a href="/00000000/00000019">Excelsior</a> unknown action "inset:"<a href="/00000000/00000021">Thronestar</a> <a href="/00000000/00000003">Is This An Index?</a></p><p><a class="door-link" href="/00000000/00000020">[This Is The Outer Limits]</a></p><p></p><p></p></div><hr><form action="/00000000/00000000" method="POST"><h4>Edit</h4><label for="title">Title:</label><input name="title" placeholder="You can use the editor below to write some text..." size="44" type="text" value="Eumirion"><br><label for="text">Text:</label><br><textarea cols="58" name="text" placeholder="Write something..." rows="15">Home\r\nClick here to parametrically create a solar system. /77700000/00000000\r\nbutton:/01010101/00000033 turns into a form with one visible button that POSTs to this URL with the link of \'times\' as an arg.  That causes the server to evaluate the Joy expression in the text of \'times\' in the context of...  this page?  the server?  the "toplevel" of this page?  I dunno yet..\r\n has:/00000000/00000019 inset:/00000000/00000021 /00000000/00000003\r\ndoor:/00000000/00000020\r\n\r\ncss:/12345678/12395679</textarea><br><input name="fake_out_caching" type="hidden" value="4280355820"><input type="submit" value="post"></form></body></html>'
p214
sg34
g4
sbs(I305419896
I305747577
tp215
g0
(g10
g2
Ntp216
Rp217
(dp218
g14
(dp219
S'text'
p220
S'.door-link { border: 1px solid black; background: tan; }\r\n.door-link:hover { border: 1px solid orange; background: black; color: tan; }\r\n/*css:/12345678/12395681*/'
p221
sS'title'
p222
S'Door Css'
p223
ssg32
S'<html><head><title>Door Css</title><style>p {\r\n  margin: 0px;\r\n}\r\n \r\ndiv { background: #ffa; }\r\n\r\n/*css:/12345678/12395681*/</style></head><body><h1><a href="/12345678/12395679">Door Css</a></h1><div><p>.door-link { border: 1px solid black; background: tan; }</p><p>.door-link:hover { border: 1px solid orange; background: black; color: tan; }</p><p>/**/</p></div><hr><form action="/12345678/12395679" method="POST"><h4>Edit</h4><label for="title">Title:</label><input name="title" placeholder="No Title" size="44" type="text" value="Door Css"><br><label for="text">Text:</label><br><textarea cols="58" name="text" placeholder="Write something..." rows="15">.door-link { border: 1px solid black; background: tan; }\r\n.door-link:hover { border: 1px solid orange; background: black; color: tan; }\r\n/*css:/12345678/12395681*/</textarea><br><input name="fake_out_caching" type="hidden" value="2507020139"><input type="submit" value="post"></form></body></html>'
p224
sg34
g4
sbs(I16843009
I51
tp225
g0
(g10
g2
Ntp226
Rp227
(dp228
g14
(dp229
g60
S'[-- dip] cons [swap] infra [0 >] swap while pop\r\n\r\nDo something n times.\r\n\r\ncss:/12345678/01010101'
p230
sg62
S'times'
p231
ssg32
S'<html><head><title>times</title><style>body { background:#cfc; }</style></head><body><h1><a href="/01010101/00000033">times</a></h1><div><p>[-- dip] cons [swap] infra [0 &gt;] swap while pop</p><p></p><p>Do something n times.</p><p></p><p></p></div><hr><form action="/01010101/00000033" method="POST"><h4>Edit</h4><label for="title">Title:</label><input name="title" placeholder="No Title" size="44" type="text" value="times"><br><label for="text">Text:</label><br><textarea cols="58" name="text" placeholder="Write something..." rows="15">[-- dip] cons [swap] infra [0 &gt;] swap while pop\r\n\r\nDo something n times.\r\n\r\ncss:/12345678/01010101</textarea><br><input name="fake_out_caching" type="hidden" value="471531137"><input type="submit" value="post"></form></body></html>'
p232
sg34
g4
sbs(I16843010
I2
tp233
g0
(g10
g2
Ntp234
Rp235
(dp236
g14
(dp237
S'text'
p238
S'command:/01010101/00000035css:/12345678/01010101'
p239
sS'title'
p240
S'Template for commands.'
p241
ssg32
S'<html><head><title>Template for commands.</title><style>body { background:#cfc; }</style></head><body><h1><a href="/01010102/00000002">Template for commands.</a></h1><div><p><form action="/01010102/00000002" class="command" method="POST"><input name="fake_out_caching" type="hidden" value="3629048052"><input name="command" type="hidden" value="/01010101/00000035"><input type="submit" value="clear"></form></p></div><hr><form action="/01010102/00000002" method="POST"><h4>Edit</h4><label for="title">Title:</label><input name="title" placeholder="You can use the editor below to write some text..." size="44" type="text" value="Template for commands."><br><label for="text">Text:</label><br><textarea cols="58" name="text" placeholder="Write something..." rows="15">command:/01010101/00000035css:/12345678/01010101</textarea><br><input name="fake_out_caching" type="hidden" value="1836385450"><input type="submit" value="post"></form></body></html>'
p242
sg34
g4
sbs(I0
I3405691582
tp243
g0
(g10
g2
Ntp244
Rp245
(dp246
g14
(dp247
S'text'
p248
S'very young red dragon grab helpless goblin as guide through the human world'
p249
sS'title'
p250
S'warrior dark elf'
p251
ssg32
S'<html><head><title>warrior dark elf</title></head><body><h1><a href="/00000000/cafebabe">warrior dark elf</a></h1><div><p>very young red dragon grab helpless goblin as guide through the human world</p></div><hr><form action="/00000000/cafebabe" method="POST"><h4>Edit</h4><label for="title">Title:</label><input name="title" placeholder="No Title" size="44" type="text" value="warrior dark elf"><br><label for="text">Text:</label><br><textarea cols="58" name="text" placeholder="Write something..." rows="15">very young red dragon grab helpless goblin as guide through the human world</textarea><br><input name="fake_out_caching" type="hidden" value="1433741694"><input type="submit" value="post"></form></body></html>'
p252
sg34
g4
sbs(I305419896
I305747584
tp253
g0
(g10
g2
Ntp254
Rp255
(dp256
g14
(dp257
g40
S''
p258
sg42
g258
ssg32
S'<html><head><title>/12345678/12395680</title></head><body><h1><a href="/12345678/12395680">No Title</a></h1><div><p class="default-text">You can use the editor below to write some text...</p></div><hr><form action="/12345678/12395680" method="POST"><h4>Edit</h4><label for="title">Title:</label><input name="title" placeholder="No Title" size="44" type="text" value=""><br><label for="text">Text:</label><br><textarea cols="58" name="text" placeholder="Write something..." rows="15"></textarea><br><input name="fake_out_caching" type="hidden" value="681643869"><input type="submit" value="post"></form></body></html>'
p259
sg34
g4
sbs(I16843009
I1
tp260
g0
(g10
g2
Ntp261
Rp262
(dp263
g14
(dp264
S'text'
p265
S'0 1  ;text:/01010102/00000002'
p266
sS'title'
p267
S'01'
p268
sS'joy'
p269
(I0
(I1
(ttp270
tp271
ssg32
S'<html><head><title>01</title><style>body { background:#cfc; }</style></head><body><h1><a href="/01010101/00000001">01</a></h1><div><p>0 1  ;<p><form action="/01010101/00000001" class="command" method="POST"><input name="fake_out_caching" type="hidden" value="41567031"><input name="command" type="hidden" value="/01010101/00000035"><input type="submit" value="clear"></form></p></p></div><hr><form action="/01010101/00000001" method="POST"><h4>Edit</h4><label for="title">Title:</label><input name="title" placeholder="You can use the editor below to write some text..." size="44" type="text" value="01"><br><label for="text">Text:</label><br><textarea cols="58" name="text" placeholder="Write something..." rows="15">0 1  ;text:/01010102/00000002</textarea><br><input name="fake_out_caching" type="hidden" value="2537374234"><input type="submit" value="post"></form></body></html>'
p272
sg34
g4
sbs(I0
I33
tp273
g0
(g10
g2
Ntp274
Rp275
(dp276
g14
(dp277
S'text'
p278
S'The massive black hole at the center of each galaxy is called the "Thronestar"..  Time slows down near the event horizon of such a titanic mass and galactic civilizations seek proximity to it as a means of prolonging existance.\r\ntext:/00000000/00080020\r\ncss:/12345678/12395678\r\nstack:/00000000/00000021'
p279
sS'stack'
p280
(tsS'title'
p281
S'Thronestar'
p282
ssg32
S'<html><head><title>Thronestar</title><style>form.command { display: inline; padding: 0.5em; }</style><style>@import url(http://fonts.googleapis.com/css?family=EB+Garamond);\r\n\r\nbody {\r\n  background: black;\r\n  color: #00ff00;\r\n  font-family: \'EB Garamond\', serif;\r\n  font-size: 133%;\r\n}\r\n\r\ndiv {\r\n  border: 0.1em solid;\r\n  border-radius: 3em;\r\n  padding: 1.25em 2.25em 1.25em 2.25em;\r\n}\r\n\r\n/*css:/12345678/12395681*/</style></head><body><h1><a href="/00000000/00000021">Thronestar</a></h1><div><p>The massive black hole at the center of each galaxy is called the "Thronestar"..  Time slows down near the event horizon of such a titanic mass and galactic civilizations seek proximity to it as a means of prolonging existance.</p><p><p><form action="/00000000/00000021" class="command" method="POST"><input name="fake_out_caching" type="hidden" value="283296855"><input name="command" type="hidden" value="/01010101/00000001"><input type="submit" value="01"></form> <form action="/00000000/00000021" class="command" method="POST"><input name="fake_out_caching" type="hidden" value="2146222775"><input name="command" type="hidden" value="/01010101/00000035"><input type="submit" value="clear"></form> <form action="/00000000/00000021" class="command" method="POST"><input name="fake_out_caching" type="hidden" value="1146893214"><input name="command" type="hidden" value="/01010101/00000037"><input type="submit" value="first"></form> <form action="/00000000/00000021" class="command" method="POST"><input name="fake_out_caching" type="hidden" value="518449896"><input name="command" type="hidden" value="/01010101/00000038"><input type="submit" value="enstacken"></form></p><p><ol></ol></p><p></p><p></p></p><p></p><p><ol></ol></p></div><hr><form action="/00000000/00000021" method="POST"><h4>Edit</h4><label for="title">Title:</label><input name="title" placeholder="You can use the editor below to write some text..." size="44" type="text" value="Thronestar"><br><label for="text">Text:</label><br><textarea cols="58" name="text" placeholder="Write something..." rows="15">The massive black hole at the center of each galaxy is called the "Thronestar"..  Time slows down near the event horizon of such a titanic mass and galactic civilizations seek proximity to it as a means of prolonging existance.\r\ntext:/00000000/00080020\r\ncss:/12345678/12395678\r\nstack:/00000000/00000021</textarea><br><input name="fake_out_caching" type="hidden" value="3539956530"><input type="submit" value="post"></form></body></html>'
p283
sg34
g4
sbs(I1511424
I1
tp284
g0
(g10
g2
Ntp285
Rp286
(dp287
g14
(dp288
g80
S'Bananas are delicious.'
p289
sg82
S'Bananas'
p290
ssg32
S'<html><head><title>Bananas</title></head><body><h1><a href="/00171000/00000001">Bananas</a></h1><div>Bananas are delicious.</div><hr><form action="/00171000/00000001" method="POST"><h4>Edit</h4><label for="title">Title:</label><input name="title" placeholder="You can use the editor below to write some text..." size="44" type="text" value="Bananas"><br><label for="text">Text:</label><br><textarea cols="58" name="text" placeholder="Write something..." rows="15">Bananas are delicious.</textarea><br><input name="fake_out_caching" type="hidden" value="2132820238"><input type="submit" value="post"></form></body></html>'
p291
sg34
g4
sbs(I2290614272
I0
tp292
g0
(g10
g2
Ntp293
Rp294
(dp295
g14
(dp296
S'text'
p297
S'index:/88880000/00000000'
p298
sS'title'
p299
S'Spaceships'
p300
ssg32
S'<html><head><title>Spaceships</title></head><body><h1><a href="/88880000/00000000">Spaceships</a></h1><div><p><ol><li><a href="/88880000/00000000">Spaceships</a><ol><li><a href="/88880000/00000001">The TARDIS</a></li></ol></li></ol></p></div><hr><form action="/88880000/00000000" method="POST"><h4>Edit</h4><label for="title">Title:</label><input name="title" placeholder="No Title" size="44" type="text" value="Spaceships"><br><label for="text">Text:</label><br><textarea cols="88" name="text" placeholder="Write something..." rows="5">index:/88880000/00000000</textarea><br><input name="fake_out_caching" type="hidden" value="2859869683"><input type="submit" value="post"></form></body></html>'
p301
sg34
g4
sbs(I0
I25
tp302
g0
(g10
g2
Ntp303
Rp304
(dp305
g14
(dp306
g210
S'A spaceship.\r\n\r\nDocked in orbit around /00000000/00000000.'
p307
sg212
S'Excelsior'
p308
ssg32
S'<html><head><title>Excelsior</title></head><body><h1><a href="/00000000/00000019">Excelsior</a></h1><div><p>A spaceship.</p><p></p><p>Docked in orbit around <a href="/00000000/00000000">Eumirion</a>.</p></div><hr><form action="/00000000/00000019" method="POST"><h4>Edit</h4><label for="title">Title:</label><input name="title" placeholder="No Title" size="44" type="text" value="Excelsior"><br><label for="text">Text:</label><br><textarea cols="88" name="text" placeholder="Write something..." rows="5">A spaceship.\r\n\r\nDocked in orbit around /00000000/00000000.</textarea><br><input name="fake_out_caching" type="hidden" value="234453159"><input type="submit" value="post"></form></body></html>'
p309
sg34
g4
sbs(I16843009
I64
tp310
g0
(g10
g2
Ntp311
Rp312
(dp313
g14
(dp314
S'text'
p315
S'1 6 d unit\r\n1 6 d swons\r\n1 6 d swons\r\n1 6 d swons\r\n;\r\nResults in a list [1d6 1d6 1d6 1d6]\r\n\r\nThen you can remove the least of the four and sum the remaining three to get a score for a D&D stat, "Roll 4d6 and discard the lowest roll."\r\n\r\n\r\ndup min remove\r\n\r\njoy:/01010101/00000040text:/01010102/00000002'
p316
sS'joy'
p317
(I1
(I6
(g21
(g0
(g93
g2
Ntp318
Rp319
(dp320
g97
((t(g0
(g19
g2
Ntp321
Rp322
(dp323
g23
S'cons'
p324
sg25
ceumi.joy.library
cons
p325
sb(ttp326
tp327
sg117
S'unit'
p328
sg23
g328
sg119
S'[] cons'
p329
sb(I1
(I6
(g21
(g0
(g93
g2
Ntp330
Rp331
(dp332
g97
(g0
(g19
g2
Ntp333
Rp334
(dp335
g23
S'swap'
p336
sg25
ceumi.joy.library
swap
p337
sb(g322
(ttp338
tp339
sg117
S'swons'
p340
sg23
g340
sg119
S'swap cons'
p341
sb(I1
(I6
(g21
(g331
(I1
(I6
(g21
(g331
(ttp342
tp343
tp344
tp345
tp346
tp347
tp348
tp349
tp350
tp351
tp352
tp353
tp354
tp355
tp356
tp357
sS'title'
p358
S'Roll four six-siders.'
p359
ssg32
S'<html><head><title>Roll four six-siders.</title><style>body { background:#cfc; }</style></head><body><h1><a href="/01010101/00000040">Roll four six-siders.</a></h1><div>1 6 d unit\r\n1 6 d swons\r\n1 6 d swons\r\n1 6 d swons\r\n;\r\nResults in a list [1d6 1d6 1d6 1d6]\r\n\r\nThen you can remove the least of the four and sum the remaining three to get a score for a D&amp;D stat, "Roll 4d6 and discard the lowest roll."\r\n\r\n\r\ndup min remove\r\n\r\n<form action="/01010101/00000040" class="command" method="POST"><input name="fake_out_caching" type="hidden" value="1726448129"><input name="command" type="hidden" value="/01010101/00000035"><input type="submit" value="clear"></form></div><hr><form action="/01010101/00000040" method="POST"><h4>Edit</h4><label for="title">Title:</label><input name="title" placeholder="You can use the editor below to write some text..." size="44" type="text" value="Roll four six-siders."><br><label for="text">Text:</label><br><textarea cols="58" name="text" placeholder="Write something..." rows="15">1 6 d unit\r\n1 6 d swons\r\n1 6 d swons\r\n1 6 d swons\r\n;\r\nResults in a list [1d6 1d6 1d6 1d6]\r\n\r\nThen you can remove the least of the four and sum the remaining three to get a score for a D&amp;D stat, "Roll 4d6 and discard the lowest roll."\r\n\r\n\r\ndup min remove\r\n\r\njoy:/01010101/00000040text:/01010102/00000002</textarea><br><input name="fake_out_caching" type="hidden" value="2180918578"><input type="submit" value="post"></form></body></html>'
p360
sg34
g4
sbs(I0
I3
tp361
g0
(g10
g2
Ntp362
Rp363
(dp364
g14
(dp365
S'text'
p366
S'index:/00000000/cafebabe'
p367
sS'title'
p368
S'Is This An Index?'
p369
ssg32
S'<html><head><title>Is This An Index?</title></head><body><h1><a href="/00000000/00000003">Is This An Index?</a></h1><div><p><ol><li><a href="/00000000/00000000">Eumirion</a><ol><li><a href="/00000000/00000003">Is This An Index?</a></li><li><a href="/00000000/00000019">Excelsior</a></li><li><a href="/00000000/00000020">This Is The Outer Limits</a></li><li><a href="/00000000/00000021">Thronestar</a></li><li><a href="/00000000/00080020">Control Panel Testing</a></li><li><a href="/00000000/cafebabe">warrior dark elf</a></li></ol></li><li><a href="/01010101/00000000">Joy Code</a><ol><li><a href="/01010101/00000001">01</a></li><li><a href="/01010101/00000033">times</a></li><li><a href="/01010101/00000035">clear</a></li><li><a href="/01010101/00000037">first</a></li><li><a href="/01010101/00000038">enstacken</a></li></ol></li><li><a href="/01010102/00000000">jump to /01010102/00000000</a><ol><li><a href="/01010102/00000002">Template for commands.</a></li></ol></li><li><a href="/12344678/00000000">And then...</a><ol></ol></li><li><a href="/12345678/00000000">Csses</a><ol><li><a href="/12345678/00000023">command form CSS</a></li><li><a href="/12345678/01010101">Joy Css</a></li><li><a href="/12345678/12345678">Brobignagian</a></li><li><a href="/12345678/12395678">Some CSS</a></li><li><a href="/12345678/12395679">Door Css</a></li><li><a href="/12345678/12395680">jump to /12345678/12395680</a></li><li><a href="/12345678/12395681">CSS CSS</a></li></ol></li><li><a href="/72300000/00000000">Whoops</a><ol></ol></li><li><a href="/77700000/00000000">Parametric Creation Of Content, Including Planets</a><ol></ol></li><li><a href="/88880000/00000000">Spaceships</a><ol><li><a href="/88880000/00000001">The TARDIS</a></li></ol></li></ol></p></div><hr><form action="/00000000/00000003" method="POST"><h4>Edit</h4><label for="title">Title:</label><input name="title" placeholder="You can use the editor below to write some text..." size="44" type="text" value="Is This An Index?"><br><label for="text">Text:</label><br><textarea cols="58" name="text" placeholder="Write something..." rows="15">index:/00000000/cafebabe</textarea><br><input name="fake_out_caching" type="hidden" value="493249514"><input type="submit" value="post"></form></body></html>'
p370
sg34
g4
sbs(I0
I32
tp371
g0
(g10
g2
Ntp372
Rp373
(dp374
g14
(dp375
g210
S"Not really, that's a TV show.\r\njump to /12345678/12345678\r\nbasil\r\ntext:/12345678/12345678\r\n"
p376
sg212
S'This Is The Outer Limits'
p377
ssg32
S'<html><head><title>This Is The Outer Limits</title><style>@import url(http://fonts.googleapis.com/css?family=EB+Garamond);\r\n\r\nbody {\r\n  background: black;\r\n  color: #00ff00;\r\n  font-family: \'EB Garamond\', serif;\r\n  font-size: 133%;\r\n}\r\n\r\ndiv {\r\n  border: 0.1em solid;\r\n  border-radius: 3em;\r\n  padding: 1.25em 2.25em 1.25em 2.25em;\r\n}\r\n\r\n/*css:/12345678/12395681*/</style><style>.door-link { border: 1px solid black; background: tan; }\r\n.door-link:hover { border: 1px solid orange; background: black; color: tan; }\r\n/*css:/12345678/12395681*/</style></head><body><h1><a href="/00000000/00000020">This Is The Outer Limits</a></h1><div><p>Not really, that\'s a TV show.</p><p>jump to <a href="/12345678/12345678">Brobignagian</a></p><p>basil</p><p><p>Very large and slightly awkward.</p><p></p><p></p><p></p><p><a href="/00000000/00000000">Eumirion</a></p><p></p><p><a class="door-link" href="/00000000/00000020">[This Is The Outer Limits]</a></p><p></p><p></p></p></div><hr><form action="/00000000/00000020" method="POST"><h4>Edit</h4><label for="title">Title:</label><input name="title" placeholder="You can use the editor below to write some text..." size="44" type="text" value="This Is The Outer Limits"><br><label for="text">Text:</label><br><textarea cols="58" name="text" placeholder="Write something..." rows="15">Not really, that\'s a TV show.\r\njump to /12345678/12345678\r\nbasil\r\ntext:/12345678/12345678\r\n</textarea><br><input name="fake_out_caching" type="hidden" value="836457097"><input type="submit" value="post"></form></body></html>'
p378
sg34
g4
sbs(I2003828736
I0
tp379
g0
(g10
g2
Ntp380
Rp381
(dp382
g14
(dp383
S'text'
p384
S'I want to provide tools that can be used in-server to parametrically create things like star systems, species, artifacts and phenomenon, etc... using e.g. 2d6 5d12 1d20 &c. D&D-style "dice" and charts.  Maybe pull content from fan wikis of sci-fi shows and books etc...\r\n\r\n\r\n\r\ncss:/12345678/12395678\r\nParametric dice are easy to make, along with tables and ways to sample from the tables to build new content and load it into the server.'
p385
sS'title'
p386
S'Parametric Creation Of Content, Including Planets'
p387
ssg32
S'<html><head><title>Parametric Creation Of Content, Including Planets</title><style>@import url(http://fonts.googleapis.com/css?family=EB+Garamond);\r\n\r\nbody {\r\n  background: black;\r\n  color: #00ff00;\r\n  font-family: \'EB Garamond\', serif;\r\n  font-size: 133%;\r\n}\r\n\r\ndiv {\r\n  border: 0.1em solid;\r\n  border-radius: 3em;\r\n  padding: 1.25em 2.25em 1.25em 2.25em;\r\n}\r\n\r\n/*css:/12345678/12395681*/</style></head><body><h1><a href="/77700000/00000000">Parametric Creation Of Content, Including Planets</a></h1><div><p>I want to provide tools that can be used in-server to parametrically create things like star systems, species, artifacts and phenomenon, etc... using e.g. 2d6 5d12 1d20 &amp;c. D&amp;D-style "dice" and charts.  Maybe pull content from fan wikis of sci-fi shows and books etc...</p><p></p><p></p><p></p><p></p><p>Parametric dice are easy to make, along with tables and ways to sample from the tables to build new content and load it into the server.</p></div><hr><form action="/77700000/00000000" method="POST"><h4>Edit</h4><label for="title">Title:</label><input name="title" placeholder="You can use the editor below to write some text..." size="44" type="text" value="Parametric Creation Of Content, Including Planets"><br><label for="text">Text:</label><br><textarea cols="58" name="text" placeholder="Write something..." rows="15">I want to provide tools that can be used in-server to parametrically create things like star systems, species, artifacts and phenomenon, etc... using e.g. 2d6 5d12 1d20 &amp;c. D&amp;D-style "dice" and charts.  Maybe pull content from fan wikis of sci-fi shows and books etc...\r\n\r\n\r\n\r\ncss:/12345678/12395678\r\nParametric dice are easy to make, along with tables and ways to sample from the tables to build new content and load it into the server.</textarea><br><input name="fake_out_caching" type="hidden" value="1829539789"><input type="submit" value="post"></form></body></html>'
p388
sg34
g4
sbs(I16843009
I0
tp389
g0
(g10
g2
Ntp390
Rp391
(dp392
g14
(dp393
g60
S'a b [c d] [e f] while\r\ncss:/12345678/01010101'
p394
sg62
S'Joy Code'
p395
ssg32
S'<html><head><title>Joy Code</title><style>body { background:#cfc; }</style></head><body><h1><a href="/01010101/00000000">Joy Code</a></h1><div><p>a b [c d] [e f] while</p><p></p></div><hr><form action="/01010101/00000000" method="POST"><h4>Edit</h4><label for="title">Title:</label><input name="title" placeholder="No Title" size="44" type="text" value="Joy Code"><br><label for="text">Text:</label><br><textarea cols="88" name="text" placeholder="Write something..." rows="5">a b [c d] [e f] while\r\ncss:/12345678/01010101</textarea><br><input name="fake_out_caching" type="hidden" value="1219654015"><input type="submit" value="post"></form></body></html>'
p396
sg34
g4
sbs(I2290614272
I1
tp397
g0
(g10
g2
Ntp398
Rp399
(dp400
g14
(dp401
g297
S'Technically not a spaceship.'
p402
sg299
S'The TARDIS'
p403
ssg32
S'<html><head><title>The Tardis</title></head><body><h1><a href="/88880000/00000001">The Tardis</a></h1><div><p>Technically not a spaceship.</p></div><hr><form action="/88880000/00000001" method="POST"><h4>Edit</h4><label for="title">Title:</label><input name="title" placeholder="No Title" size="44" type="text" value="The Tardis"><br><label for="text">Text:</label><br><textarea cols="88" name="text" placeholder="Write something..." rows="5">Technically not a spaceship.</textarea><br><input name="fake_out_caching" type="hidden" value="60472379"><input type="submit" value="post"></form></body></html>'
p404
sg34
g4
sbs(I16843009
I53
tp405
g0
(g10
g2
Ntp406
Rp407
(dp408
g14
(dp409
g248
S'clear ;joy:/01010101/00000035text:/01010102/00000002'
p410
sg250
S'clear'
p411
sg269
(g0
(g19
g2
Ntp412
Rp413
(dp414
g23
S'clear'
p415
sg25
g107
sb(ttp416
ssg32
S'<html><head><title>clear</title><style>body { background:#cfc; }</style></head><body><h1><a href="/01010101/00000035">clear</a></h1><div>clear ;<form action="/01010101/00000035" class="command" method="POST"><input name="fake_out_caching" type="hidden" value="3164265784"><input name="command" type="hidden" value="/01010101/00000035"><input type="submit" value="clear"></form></div><hr><form action="/01010101/00000035" method="POST"><h4>Edit</h4><label for="title">Title:</label><input name="title" placeholder="You can use the editor below to write some text..." size="44" type="text" value="clear"><br><label for="text">Text:</label><br><textarea cols="58" name="text" placeholder="Write something..." rows="15">clear ;joy:/01010101/00000035text:/01010102/00000002</textarea><br><input name="fake_out_caching" type="hidden" value="883333796"><input type="submit" value="post"></form></body></html>'
p417
sg34
g4
sbs(I305415800
I0
tp418
g0
(g10
g2
Ntp419
Rp420
(dp421
g14
(dp422
S'text'
p423
S'You add zee content!'
p424
sS'title'
p425
S'And then...'
p426
ssg32
S'<html><head><title>And then...</title></head><body><h1><a href="/12344678/00000000">And then...</a></h1><div><p>You add zee content!</p></div><hr><form action="/12344678/00000000" method="POST"><h4>Edit</h4><label for="title">Title:</label><input name="title" placeholder="You can use the editor below to write some text..." size="44" type="text" value="And then..."><br><label for="text">Text:</label><br><textarea cols="58" name="text" placeholder="Write something..." rows="15">You add zee content!</textarea><br><input name="fake_out_caching" type="hidden" value="2346855653"><input type="submit" value="post"></form></body></html>'
p427
sg34
g4
sbs(I305419896
I305747576
tp428
g0
(g10
g2
Ntp429
Rp430
(dp431
g14
(dp432
S'text'
p433
S"@import url(http://fonts.googleapis.com/css?family=EB+Garamond);\r\n\r\nbody {\r\n  background: black;\r\n  color: #00ff00;\r\n  font-family: 'EB Garamond', serif;\r\n  font-size: 133%;\r\n}\r\n\r\ndiv {\r\n  border: 0.1em solid;\r\n  border-radius: 3em;\r\n  padding: 1.25em 2.25em 1.25em 2.25em;\r\n}\r\n\r\n/*css:/12345678/12395681*/"
p434
sS'title'
p435
S'Some CSS'
p436
ssg32
S'<html><head><title>Some CSS</title><style>p {\r\n  margin: 0px;\r\n}\r\n \r\ndiv { background: #ffa; }\r\n\r\n/*css:/12345678/12395681*/</style></head><body><h1><a href="/12345678/12395678">Some CSS</a></h1><div><p>@import url(http://fonts.googleapis.com/css?family=EB+Garamond);</p><p></p><p>body {</p><p>  background: black;</p><p>  color: #00ff00;</p><p>  font-family: \'EB Garamond\', serif;</p><p>  font-size: 133%;</p><p>}</p><p></p><p>div {</p><p>  border: 0.1em solid;</p><p>  border-radius: 3em;</p><p>  padding: 1.25em 2.25em 1.25em 2.25em;</p><p>}</p><p></p><p>/**/</p></div><hr><form action="/12345678/12395678" method="POST"><h4>Edit</h4><label for="title">Title:</label><input name="title" placeholder="No Title" size="44" type="text" value="Some CSS"><br><label for="text">Text:</label><br><textarea cols="58" name="text" placeholder="Write something..." rows="15">@import url(http://fonts.googleapis.com/css?family=EB+Garamond);\r\n\r\nbody {\r\n  background: black;\r\n  color: #00ff00;\r\n  font-family: \'EB Garamond\', serif;\r\n  font-size: 133%;\r\n}\r\n\r\ndiv {\r\n  border: 0.1em solid;\r\n  border-radius: 3em;\r\n  padding: 1.25em 2.25em 1.25em 2.25em;\r\n}\r\n\r\n/*css:/12345678/12395681*/</textarea><br><input name="fake_out_caching" type="hidden" value="1459831538"><input type="submit" value="post"></form></body></html>'
p437
sg34
g4
sbs(I305419896
I35
tp438
g0
(g10
g2
Ntp439
Rp440
(dp441
g14
(dp442
g248
S'form.command { display: inline; padding: 0.5em; }'
p443
sg250
S'command form CSS'
p444
ssg32
S'<html><head><title>command form CSS</title></head><body><h1><a href="/12345678/00000023">command form CSS</a></h1><div><p>form.command { display: inline; padding: 0.5em; }</p></div><hr><form action="/12345678/00000023" method="POST"><h4>Edit</h4><label for="title">Title:</label><input name="title" placeholder="No Title" size="44" type="text" value="command form CSS"><br><label for="text">Text:</label><br><textarea cols="58" name="text" placeholder="Write something..." rows="15">form.command { display: inline; padding: 0.5em; }</textarea><br><input name="fake_out_caching" type="hidden" value="3229924183"><input type="submit" value="post"></form></body></html>'
p445
sg34
g4
sbs(I305419896
I305419896
tp446
g0
(g10
g2
Ntp447
Rp448
(dp449
g14
(dp450
S'text'
p451
S'Very large and slightly awkward.\r\ncss:/12345678/12395678\r\n\r\n\r\n/00000000/00000000\r\n\r\ndoor:/00000000/00000020\r\n\r\ncss:/12345678/12395679'
p452
sS'title'
p453
S'Brobignagian'
p454
ssg32
S'<html><head><title>Brobignagian</title><style>@import url(http://fonts.googleapis.com/css?family=EB+Garamond);\r\n\r\nbody {\r\n  background: black;\r\n  color: #00ff00;\r\n  font-family: \'EB Garamond\', serif;\r\n  font-size: 133%;\r\n}\r\n\r\ndiv {\r\n  border: 0.1em solid;\r\n  border-radius: 3em;\r\n  padding: 1.25em 2.25em 1.25em 2.25em;\r\n}\r\n\r\n/*css:/12345678/12395681*/</style><style>.door-link { border: 1px solid black; background: tan; }\r\n.door-link:hover { border: 1px solid orange; background: black; color: tan; }\r\n/*css:/12345678/12395681*/</style></head><body><h1><a href="/12345678/12345678">Brobignagian</a></h1><div><p>Very large and slightly awkward.</p><p></p><p></p><p></p><p><a href="/00000000/00000000">Eumirion</a></p><p></p><p><a class="door-link" href="/00000000/00000020">[This Is The Outer Limits]</a></p><p></p><p></p></div><hr><form action="/12345678/12345678" method="POST"><h4>Edit</h4><label for="title">Title:</label><input name="title" placeholder="No Title" size="44" type="text" value="Brobignagian"><br><label for="text">Text:</label><br><textarea cols="58" name="text" placeholder="Write something..." rows="15">Very large and slightly awkward.\r\ncss:/12345678/12395678\r\n\r\n\r\n/00000000/00000000\r\n\r\ndoor:/00000000/00000020\r\n\r\ncss:/12345678/12395679</textarea><br><input name="fake_out_caching" type="hidden" value="1860503211"><input type="submit" value="post"></form></body></html>'
p455
sg34
g4
sbs(I305419896
I0
tp456
g0
(g10
g2
Ntp457
Rp458
(dp459
g14
(dp460
g297
S'index:/12345678/cafebabe'
p461
sg299
S'Csses'
p462
ssg32
S'<html><head><title>Csses</title></head><body><h1><a href="/12345678/00000000">Csses</a></h1><div><p><ol><li><a href="/12345678/00000000">Csses</a><ol><li><a href="/12345678/12345678">Brobignagian</a></li><li><a href="/12345678/12395678">Some Css</a></li><li><a href="/12345678/12395679">Door Css</a></li></ol></li></ol></p></div><hr><form action="/12345678/00000000" method="POST"><h4>Edit</h4><label for="title">Title:</label><input name="title" placeholder="No Title" size="44" type="text" value="Csses"><br><label for="text">Text:</label><br><textarea cols="88" name="text" placeholder="Write something..." rows="5">index:/12345678/cafebabe</textarea><br><input name="fake_out_caching" type="hidden" value="925644716"><input type="submit" value="post"></form></body></html>'
p463
sg34
g4
sbs(I1511424
I2
tp464
g0
(g10
g2
Ntp465
Rp466
(dp467
g14
(dp468
g70
S'li:/00171000/00000001\r\nli:/00171000/00000003\r\nli:/00171000/00000001'
p469
sg72
S'A List'
p470
ssg32
S'<html><head><title>A List</title></head><body><h1><a href="/00171000/00000002">A List</a></h1><div><li>Bananas are delicious.</li>\r\n<li><p>Bananas are delicious.</p>\r\n<div>Bananas are delicious.</div>\r\nBananas are delicious.</li>\r\n<li>Bananas are delicious.</li></div><hr><form action="/00171000/00000002" method="POST"><h4>Edit</h4><label for="title">Title:</label><input name="title" placeholder="You can use the editor below to write some text..." size="44" type="text" value="A List"><br><label for="text">Text:</label><br><textarea cols="58" name="text" placeholder="Write something..." rows="15">li:/00171000/00000001\r\nli:/00171000/00000003\r\nli:/00171000/00000001</textarea><br><input name="fake_out_caching" type="hidden" value="46902788"><input type="submit" value="post"></form></body></html>'
p471
sg34
g4
sbssS'pather'
p472
ceumi.server
pather
p473
sS'page_renderer'
p474
ceumi.page
Page
p475
sS'modified'
p476
I00
sb.