ccopy_reg
_reconstructor
p0
(ceumi.server
EumiServer
p1
c__builtin__
object
p2
Ntp3
Rp4
(dp5
S'debug'
p6
I00
sS'router'
p7
(dp8
(I16843009
I57
tp9
g0
(ceumi.server
PageHandler
p10
g2
Ntp11
Rp12
(dp13
S'data'
p14
(dp15
S'text'
p16
S'4 6 d ;joy:/01010101/00000039text:/01010102/00000002'
p17
sS'joy'
p18
(I4
(I6
(g0
(ceumi.joy.functions
FunctionWrapper
p19
g2
Ntp20
Rp21
(dp22
S'name'
p23
S'd'
p24
sS'f'
p25
ceumi.joy.morewords
d
p26
sb(ttp27
tp28
tp29
sS'title'
p30
S'4d6'
p31
ssS'response'
p32
S'<html><head><title>4d6</title><style>body { background:#cfc; }</style></head><body><h1><a href="/01010101/00000039">4d6</a></h1><div>4 6 d ;<form action="/01010101/00000039" class="command" method="POST"><input name="fake_out_caching" type="hidden" value="676163095"><input name="command" type="hidden" value="/01010101/00000035"><input type="submit" value="clear"></form></div><hr><form action="/01010101/00000039" method="POST"><h4>Edit</h4><label for="title">Title:</label><input name="title" placeholder="You can use the editor below to write some text..." size="44" type="text" value="4d6"><br><label for="text">Text:</label><br><textarea cols="58" name="text" placeholder="Write something..." rows="15">4 6 d ;joy:/01010101/00000039text:/01010102/00000002</textarea><br><input name="fake_out_caching" type="hidden" value="931766936"><input type="submit" value="post"></form></body></html>'
p33
sS'server'
p34
g4
sbs(I1911
I4369
tp35
g0
(g10
g2
Ntp36
Rp37
(dp38
g14
(dp39
S'text'
p40
S'div:/00000777/0000000a\r\ndiv:/00000777/0000000b\r\ncssclass:/12345678/12395682\r\n'
p41
sS'title'
p42
S'ab'
p43
ssg32
S'<html><head><title>ab</title></head><body><h1><a href="/00000777/00001111">ab</a></h1><div class="lof"><div class="lof">A\r\n\r\n</div>\r\n<div class="lof">B\r\n\r\n</div>\r\n\r\n</div><hr><form action="/00000777/00001111" method="POST"><h4>Edit</h4><label for="title">Title:</label><input name="title" placeholder="You can use the editor below to write some text..." size="44" type="text" value="ab"><br><label for="text">Text:</label><br><textarea cols="58" name="text" placeholder="Write something..." rows="15">div:/00000777/0000000a\r\ndiv:/00000777/0000000b\r\ncssclass:/12345678/12395682\r\n</textarea><br><input name="fake_out_caching" type="hidden" value="138523134"><input type="submit" value="post"></form></body></html>'
p44
sg34
g4
sbs(I1911
I11
tp45
g0
(g10
g2
Ntp46
Rp47
(dp48
g14
(dp49
g40
S'B\r\ncssclass:/12345678/12395682\r\n'
p50
sg42
S'B'
p51
ssg32
S'<html><head><title>B</title></head><body><h1><a href="/00000777/0000000b">B</a></h1><div class="lof">B\r\n\r\n</div><hr><form action="/00000777/0000000b" method="POST"><h4>Edit</h4><label for="title">Title:</label><input name="title" placeholder="You can use the editor below to write some text..." size="44" type="text" value="B"><br><label for="text">Text:</label><br><textarea cols="58" name="text" placeholder="Write something..." rows="15">B\r\ncssclass:/12345678/12395682\r\n</textarea><br><input name="fake_out_caching" type="hidden" value="119155415"><input type="submit" value="post"></form></body></html>'
p52
sg34
g4
sbs(I305419896
I305747589
tp53
g0
(g10
g2
Ntp54
Rp55
(dp56
g14
(dp57
g40
S'.lof {\r\n  border-top: 2px solid black;\r\n  border-right: 2px solid black;\r\n  padding: 0.25em;\r\n  margin: 0.25em;\r\n  float: left;\r\n}\r\n/*\r\ncss:/12345678/12395681\r\ncss:/12345678/12395685\r\ncssclass:/12345678/12395682\r\n*/'
p58
sg42
S'Lof'
p59
ssg32
S'<html><head><title>Lof</title><style>p {\r\n  margin: 0px;\r\n}\r\n \r\ndiv { background: #ffa; }\r\n\r\n/*css:/12345678/12395681*/</style><style>.lof {\r\n  border-top: 2px solid black;\r\n  border-right: 2px solid black;\r\n  padding: 0.25em;\r\n  margin: 0.25em;\r\n  float: left;\r\n}\r\n/*\r\ncss:/12345678/12395681\r\ncss:/12345678/12395685\r\ncssclass:/12345678/12395682\r\n*/</style></head><body><h1><a href="/12345678/12395685">Lof</a></h1><div class="lof">.lof {\r\n  border-top: 2px solid black;\r\n  border-right: 2px solid black;\r\n  padding: 0.25em;\r\n  margin: 0.25em;\r\n  float: left;\r\n}\r\n/*\r\n\r\n\r\n\r\n*/</div><hr><form action="/12345678/12395685" method="POST"><h4>Edit</h4><label for="title">Title:</label><input name="title" placeholder="You can use the editor below to write some text..." size="44" type="text" value="Lof"><br><label for="text">Text:</label><br><textarea cols="58" name="text" placeholder="Write something..." rows="15">.lof {\r\n  border-top: 2px solid black;\r\n  border-right: 2px solid black;\r\n  padding: 0.25em;\r\n  margin: 0.25em;\r\n  float: left;\r\n}\r\n/*\r\ncss:/12345678/12395681\r\ncss:/12345678/12395685\r\ncssclass:/12345678/12395682\r\n*/</textarea><br><input name="fake_out_caching" type="hidden" value="1518815399"><input type="submit" value="post"></form></body></html>'
p60
sg34
g4
sbs(I305419896
I305747585
tp61
g0
(g10
g2
Ntp62
Rp63
(dp64
g14
(dp65
S'text'
p66
S'p {\r\n  margin: 0px;\r\n}\r\n \r\ndiv { background: #ffa; }\r\n\r\n/*css:/12345678/12395681*/'
p67
sS'title'
p68
S'CSS CSS'
p69
ssg32
S'<html><head><title>CSS CSS</title><style>p {\r\n  margin: 0px;\r\n}\r\n \r\ndiv { background: #ffa; }\r\n\r\n/*css:/12345678/12395681*/</style></head><body><h1><a href="/12345678/12395681">CSS CSS</a></h1><div><p>p {</p><p>  margin: 0px;</p><p>}</p><p> </p><p>div { background: #ffa; }</p><p></p><p>/**/</p></div><hr><form action="/12345678/12395681" method="POST"><h4>Edit</h4><label for="title">Title:</label><input name="title" placeholder="No Title" size="44" type="text" value="CSS CSS"><br><label for="text">Text:</label><br><textarea cols="58" name="text" placeholder="Write something..." rows="15">p {\r\n  margin: 0px;\r\n}\r\n \r\ndiv { background: #ffa; }\r\n\r\n/*css:/12345678/12395681*/</textarea><br><input name="fake_out_caching" type="hidden" value="36988113"><input type="submit" value="post"></form></body></html>'
p70
sg34
g4
sbs(I1915748352
I0
tp71
g0
(g10
g2
Ntp72
Rp73
(dp74
g14
(dp75
S'text'
p76
S"Go to /00000000/00000000\r\n\r\nRemove the space between 'text:' and /72300000/00000000 in the link below to see the error that happens when there is a loop in the text tree.\r\n\r\ntext: /72300000/00000000"
p77
sS'title'
p78
S'Whoops'
p79
ssg32
S'<html><head><title>Whoops</title></head><body><h1><a href="/72300000/00000000">Whoops</a></h1><div><p>Go to <a href="/00000000/00000000">Eumirion</a></p><p>Remove the space between \'text:\' and <a href="/72300000/00000000">Whoops</a> in the link below to see the error that happens when there is a loop in the text tree.</p><p>text: <a href="/72300000/00000000">Whoops</a></p></div><hr><form action="/72300000/00000000" method="POST"><h4>Edit</h4><label for="title">Title:</label><input name="title" placeholder="You can use the editor below to write some text..." size="44" type="text" value="Whoops"><br><label for="text">Text:</label><br><textarea cols="58" name="text" placeholder="Write something..." rows="15">Go to /00000000/00000000\r\n\r\nRemove the space between \'text:\' and /72300000/00000000 in the link below to see the error that happens when there is a loop in the text tree.\r\n\r\ntext: /72300000/00000000</textarea><br><input name="fake_out_caching" type="hidden" value="2229852314"><input type="submit" value="post"></form></body></html>'
p80
sg34
g4
sbs(I305419896
I16843009
tp81
g0
(g10
g2
Ntp82
Rp83
(dp84
g14
(dp85
S'text'
p86
S'body { background:#cfc; }'
p87
sS'title'
p88
S'Joy Css'
p89
ssg32
S'<html><head><title>Joy Css</title></head><body><h1><a href="/12345678/01010101">Joy Css</a></h1><div><p>body { background:#cfc; }</p></div><hr><form action="/12345678/01010101" method="POST"><h4>Edit</h4><label for="title">Title:</label><input name="title" placeholder="No Title" size="44" type="text" value="Joy Css"><br><label for="text">Text:</label><br><textarea cols="88" name="text" placeholder="Write something..." rows="5">body { background:#cfc; }</textarea><br><input name="fake_out_caching" type="hidden" value="2675289055"><input type="submit" value="post"></form></body></html>'
p90
sg34
g4
sbs(I16843009
I64
tp91
g0
(g10
g2
Ntp92
Rp93
(dp94
g14
(dp95
S'text'
p96
S'1 6 d 1 6 d 1 6 d 1 6 d [] cons cons cons cons\r\n;\r\n\r\nResults in a list [1d6 1d6 1d6 1d6]\r\n\r\nThen you can remove the least of the four and sum the remaining three to get a score for a D&D stat, "Roll 4d6 and discard the lowest roll."\r\n\r\n[] [[1 6 d] 4 times] infra\r\n\r\n[1 6 d] 4 times [] [cons] 4 times\r\n\r\ndup min remove sum\r\n\r\njoy:/01010101/00000040text:/01010102/00000002'
p97
sS'joy'
p98
(I1
(I6
(g0
(g19
g2
Ntp99
Rp100
(dp101
g23
S'd'
p102
sg25
g26
sb(I1
(I6
(g100
(I1
(I6
(g100
(I1
(I6
(g100
((t(g0
(g19
g2
Ntp103
Rp104
(dp105
g23
S'cons'
p106
sg25
ceumi.joy.library
cons
p107
sb(g104
(g104
(g104
(ttp108
tp109
tp110
tp111
tp112
tp113
tp114
tp115
tp116
tp117
tp118
tp119
tp120
tp121
tp122
tp123
tp124
sS'title'
p125
S'Roll four six-siders.'
p126
ssg32
S'<html><head><title>Roll four six-siders.</title><style>body { background:#cfc; }</style></head><body><h1><a href="/01010101/00000040">Roll four six-siders.</a></h1><div><p>1 6 d 1 6 d 1 6 d 1 6 d [] cons cons cons cons\r\n;</p><p>Results in a list [1d6 1d6 1d6 1d6]</p><p>Then you can remove the least of the four and sum the remaining three to get a score for a D&amp;D stat, "Roll 4d6 and discard the lowest roll."</p><p>[] [[1 6 d] 4 times] infra</p><p>[1 6 d] 4 times [] [cons] 4 times</p><p>dup min remove sum</p><p><form action="/01010101/00000040" class="command" method="POST"><input name="fake_out_caching" type="hidden" value="4174111000"><input name="command" type="hidden" value="/01010101/00000035"><input type="submit" value="clear"></form></p></div><hr><form action="/01010101/00000040" method="POST"><h4>Edit</h4><label for="title">Title:</label><input name="title" placeholder="You can use the editor below to write some text..." size="44" type="text" value="Roll four six-siders."><br><label for="text">Text:</label><br><textarea cols="58" name="text" placeholder="Write something..." rows="15">1 6 d 1 6 d 1 6 d 1 6 d [] cons cons cons cons\r\n;\r\n\r\nResults in a list [1d6 1d6 1d6 1d6]\r\n\r\nThen you can remove the least of the four and sum the remaining three to get a score for a D&amp;D stat, "Roll 4d6 and discard the lowest roll."\r\n\r\n[] [[1 6 d] 4 times] infra\r\n\r\n[1 6 d] 4 times [] [cons] 4 times\r\n\r\ndup min remove sum\r\n\r\njoy:/01010101/00000040text:/01010102/00000002</textarea><br><input name="fake_out_caching" type="hidden" value="3822274631"><input type="submit" value="post"></form></body></html>'
p127
sg34
g4
sbs(I1511424
I0
tp128
g0
(g10
g2
Ntp129
Rp130
(dp131
g14
(dp132
S'text'
p133
S'div:/00171000/00000001\r\np:/00171000/00000001\r\nol:/00171000/00000002\r\ntext:/00171000/00000001\r\ntext:/00171000/00000001\r\np:/00171000/00000001\r\nul:/00171000/00000002\r\ndiv:/00171000/00000001\r\ncss:/12345678/12395678'
p134
sS'title'
p135
S'Try the new stuff'
p136
ssg32
S'<html><head><title>Try the new stuff</title><style>@import url(http://fonts.googleapis.com/css?family=EB+Garamond);\r\n\r\nbody {\r\n  background: black;\r\n  color: #00ff00;\r\n  font-family: \'EB Garamond\', serif;\r\n  font-size: 133%;\r\n}\r\n\r\ndiv {\r\n  border: 0.1em solid;\r\n  border-radius: 3em;\r\n  padding: 1.25em 2.25em 1.25em 2.25em;\r\n}\r\n\r\n/*css:/12345678/12395681*/</style></head><body><h1><a href="/00171000/00000000">Try the new stuff</a></h1><div><div><p>Bananas are delicious.</p></div><p><p>Bananas are delicious.</p></p><ol><li><p>Bananas are delicious.</p></li><li><p><p>Bananas are delicious.</p></p><div><p>Bananas are delicious.</p></div><p>Bananas are delicious.</p></li><li><p>Bananas are delicious.</p></li></ol><p>Bananas are delicious.</p><p>Bananas are delicious.</p><p><p>Bananas are delicious.</p></p><ul><li><p>Bananas are delicious.</p></li><li><p><p>Bananas are delicious.</p></p><div><p>Bananas are delicious.</p></div><p>Bananas are delicious.</p></li><li><p>Bananas are delicious.</p></li></ul><div><p>Bananas are delicious.</p></div></div><hr><form action="/00171000/00000000" method="POST"><h4>Edit</h4><label for="title">Title:</label><input name="title" placeholder="You can use the editor below to write some text..." size="44" type="text" value="Try the new stuff"><br><label for="text">Text:</label><br><textarea cols="58" name="text" placeholder="Write something..." rows="15">div:/00171000/00000001\r\np:/00171000/00000001\r\nol:/00171000/00000002\r\ntext:/00171000/00000001\r\ntext:/00171000/00000001\r\np:/00171000/00000001\r\nul:/00171000/00000002\r\ndiv:/00171000/00000001\r\ncss:/12345678/12395678</textarea><br><input name="fake_out_caching" type="hidden" value="2480090312"><input type="submit" value="post"></form></body></html>'
p137
sg34
g4
sbs(I16843009
I56
tp138
g0
(g10
g2
Ntp139
Rp140
(dp141
g14
(dp142
S'text'
p143
S'enstacken ;text:/01010102/00000002'
p144
sS'joy'
p145
(g0
(ceumi.joy.definitions
DefinitionWrapper
p146
g2
Ntp147
Rp148
(dp149
S'body'
p150
(g0
(g19
g2
Ntp151
Rp152
(dp153
g23
S'stack'
p154
sg25
ceumi.joy.library
stack_
p155
sb((g0
(g19
g2
Ntp156
Rp157
(dp158
g23
S'clear'
p159
sg25
ceumi.joy.library
clear
p160
sb(ttp161
(g0
(g19
g2
Ntp162
Rp163
(dp164
g23
S'dip'
p165
sg25
ceumi.joy.combinators
dip
p166
sb(ttp167
tp168
tp169
sS'__name__'
p170
S'enstacken'
p171
sg23
g171
sS'__doc__'
p172
S'stack [clear] dip'
p173
sb(ttp174
sS'title'
p175
S'enstacken'
p176
ssg32
S'<html><head><title>enstacken</title><style>body { background:#cfc; }</style></head><body><h1><a href="/01010101/00000038">enstacken</a></h1><div><p>enstacken ;<p><form action="/01010101/00000038" class="command" method="POST"><input name="fake_out_caching" type="hidden" value="782127247"><input name="command" type="hidden" value="/01010101/00000035"><input type="submit" value="clear"></form></p></p></div><hr><form action="/01010101/00000038" method="POST"><h4>Edit</h4><label for="title">Title:</label><input name="title" placeholder="You can use the editor below to write some text..." size="44" type="text" value="enstacken"><br><label for="text">Text:</label><br><textarea cols="58" name="text" placeholder="Write something..." rows="15">enstacken ;text:/01010102/00000002</textarea><br><input name="fake_out_caching" type="hidden" value="2737218329"><input type="submit" value="post"></form></body></html>'
p177
sg34
g4
sbs(I0
I524320
tp178
g0
(g10
g2
Ntp179
Rp180
(dp181
g14
(dp182
S'text'
p183
S'door:/00000000/00000000\r\ncommand:/01010101/00000001command:/01010101/00000035command:/01010101/00000037command:/01010101/00000038command:/01010101/00000039command:/01010101/00000040\r\nstack:/00000000/00080020\r\nstackinto:/00000000/00080020\r\ncss:/12345678/00000023'
p184
sS'title'
p185
S'Control Panel Testing'
p186
sS'stack'
p187
(tsS'joy'
p188
(tssg32
S'<html><head><title>Control Panel Testing</title><style>form.command { display: inline; padding: 0.5em; }</style></head><body><h1><a href="/00000000/00080020">Control Panel Testing</a></h1><div><a class="door-link" href="/00000000/00000000">[Eumirion]</a>\r\n<form action="/00000000/00080020" class="command" method="POST"><input name="fake_out_caching" type="hidden" value="2773974339"><input name="command" type="hidden" value="/01010101/00000001"><input type="submit" value="01"></form><form action="/00000000/00080020" class="command" method="POST"><input name="fake_out_caching" type="hidden" value="1726278365"><input name="command" type="hidden" value="/01010101/00000035"><input type="submit" value="clear"></form><form action="/00000000/00080020" class="command" method="POST"><input name="fake_out_caching" type="hidden" value="1419555521"><input name="command" type="hidden" value="/01010101/00000037"><input type="submit" value="first"></form><form action="/00000000/00080020" class="command" method="POST"><input name="fake_out_caching" type="hidden" value="3496990205"><input name="command" type="hidden" value="/01010101/00000038"><input type="submit" value="enstacken"></form><form action="/00000000/00080020" class="command" method="POST"><input name="fake_out_caching" type="hidden" value="1466260261"><input name="command" type="hidden" value="/01010101/00000039"><input type="submit" value="4d6"></form><form action="/00000000/00080020" class="command" method="POST"><input name="fake_out_caching" type="hidden" value="660983848"><input name="command" type="hidden" value="/01010101/00000040"><input type="submit" value="Roll four six-siders."></form>\r\n<ol></ol>\r\n\r\n</div><hr><form action="/00000000/00080020" method="POST"><h4>Edit</h4><label for="title">Title:</label><input name="title" placeholder="You can use the editor below to write some text..." size="44" type="text" value="Control Panel Testing"><br><label for="text">Text:</label><br><textarea cols="58" name="text" placeholder="Write something..." rows="15">door:/00000000/00000000\r\ncommand:/01010101/00000001command:/01010101/00000035command:/01010101/00000037command:/01010101/00000038command:/01010101/00000039command:/01010101/00000040\r\nstack:/00000000/00080020\r\nstackinto:/00000000/00080020\r\ncss:/12345678/00000023</textarea><br><input name="fake_out_caching" type="hidden" value="1576293613"><input type="submit" value="post"></form></body></html>'
p189
sg34
g4
sbs(I1911
I10
tp190
g0
(g10
g2
Ntp191
Rp192
(dp193
g14
(dp194
g40
S'A\r\ncssclass:/12345678/12395682\r\n'
p195
sg42
S'A'
p196
ssg32
S'<html><head><title>A</title></head><body><h1><a href="/00000777/0000000a">A</a></h1><div class="lof">A\r\n\r\n</div><hr><form action="/00000777/0000000a" method="POST"><h4>Edit</h4><label for="title">Title:</label><input name="title" placeholder="You can use the editor below to write some text..." size="44" type="text" value="A"><br><label for="text">Text:</label><br><textarea cols="58" name="text" placeholder="Write something..." rows="15">A\r\ncssclass:/12345678/12395682\r\n</textarea><br><input name="fake_out_caching" type="hidden" value="1021511231"><input type="submit" value="post"></form></body></html>'
p197
sg34
g4
sbs(I16843009
I55
tp198
g0
(g10
g2
Ntp199
Rp200
(dp201
g14
(dp202
S'text'
p203
S'first ;text:/01010102/00000002'
p204
sS'joy'
p205
(g0
(g146
g2
Ntp206
Rp207
(dp208
g150
(g0
(g19
g2
Ntp209
Rp210
(dp211
g23
S'uncons'
p212
sg25
ceumi.joy.library
uncons
p213
sb(g0
(g19
g2
Ntp214
Rp215
(dp216
g23
S'pop'
p217
sg25
ceumi.joy.library
pop
p218
sb(ttp219
tp220
sg170
S'first'
p221
sg23
g221
sg172
S'# This is ALSO one of the most basic commands.\n# It provides the first item of a sequence...\n'
p222
sb(ttp223
sS'title'
p224
S'first'
p225
ssg32
S'<html><head><title>first</title><style>body { background:#cfc; }</style></head><body><h1><a href="/01010101/00000037">first</a></h1><div><p>first ;<p><form action="/01010101/00000037" class="command" method="POST"><input name="fake_out_caching" type="hidden" value="2656798380"><input name="command" type="hidden" value="/01010101/00000035"><input type="submit" value="clear"></form></p></p></div><hr><form action="/01010101/00000037" method="POST"><h4>Edit</h4><label for="title">Title:</label><input name="title" placeholder="You can use the editor below to write some text..." size="44" type="text" value="first"><br><label for="text">Text:</label><br><textarea cols="58" name="text" placeholder="Write something..." rows="15">first ;text:/01010102/00000002</textarea><br><input name="fake_out_caching" type="hidden" value="2758267846"><input type="submit" value="post"></form></body></html>'
p226
sg34
g4
sbs(I0
I0
tp227
g0
(g10
g2
Ntp228
Rp229
(dp230
g14
(dp231
S'text'
p232
S'Home\r\nClick here to parametrically create a solar system. /77700000/00000000\r\n\r\n has:/00000000/00000019 inset:/00000000/00000021 /00000000/00000003\r\n\r\ndoor:/00000000/00000020\r\n\r\ncss:/12345678/12395679\r\n'
p233
sS'title'
p234
S'Eumirion'
p235
ssg32
S'<html><head><title>Eumirion</title><style>.door-link { \r\n  border: 1px solid black;\r\n  background: tan;\r\n  padding: 0.5em;\r\n}\r\n\r\n.door-link:hover {\r\n  border: 1px solid orange;\r\n  background: black;\r\n  color: tan;\r\n  padding: 0.75em;\r\n}\r\n/*css:/12345678/12395681*/</style></head><body><h1><a href="/00000000/00000000">Eumirion</a></h1><div><p>Home\r\nClick here to parametrically create a solar system. <a href="/77700000/00000000">Parametric Creation Of Content, Including Planets</a></p><p> unknown action "has:"<a href="/00000000/00000019">Excelsior</a> unknown action "inset:"<a href="/00000000/00000021">Thronestar</a> <a href="/00000000/00000003">Is This An Index?</a></p><p><a class="door-link" href="/00000000/00000020">[This Is The Outer Limits]</a></p><p>\r\n</p></div><hr><form action="/00000000/00000000" method="POST"><h4>Edit</h4><label for="title">Title:</label><input name="title" placeholder="You can use the editor below to write some text..." size="44" type="text" value="Eumirion"><br><label for="text">Text:</label><br><textarea cols="58" name="text" placeholder="Write something..." rows="15">Home\r\nClick here to parametrically create a solar system. /77700000/00000000\r\n\r\n has:/00000000/00000019 inset:/00000000/00000021 /00000000/00000003\r\n\r\ndoor:/00000000/00000020\r\n\r\ncss:/12345678/12395679\r\n</textarea><br><input name="fake_out_caching" type="hidden" value="2373786348"><input type="submit" value="post"></form></body></html>'
p236
sg34
g4
sbs(I305419896
I305747577
tp237
g0
(g10
g2
Ntp238
Rp239
(dp240
g14
(dp241
S'text'
p242
S'.door-link { \r\n  border: 1px solid black;\r\n  background: tan;\r\n  padding: 0.5em;\r\n}\r\n\r\n.door-link:hover {\r\n  border: 1px solid orange;\r\n  background: black;\r\n  color: tan;\r\n  padding: 0.75em;\r\n}\r\n/*css:/12345678/12395681*/'
p243
sS'title'
p244
S'Door Css'
p245
ssg32
S'<html><head><title>Door Css</title><style>p {\r\n  margin: 0px;\r\n}\r\n \r\ndiv { background: #ffa; }\r\n\r\n/*css:/12345678/12395681*/</style></head><body><h1><a href="/12345678/12395679">Door Css</a></h1><div><p>.door-link { \r\n  border: 1px solid black;\r\n  background: tan;\r\n  padding: 0.5em;\r\n}</p><p>.door-link:hover {\r\n  border: 1px solid orange;\r\n  background: black;\r\n  color: tan;\r\n  padding: 0.75em;\r\n}\r\n/**/</p></div><hr><form action="/12345678/12395679" method="POST"><h4>Edit</h4><label for="title">Title:</label><input name="title" placeholder="You can use the editor below to write some text..." size="44" type="text" value="Door Css"><br><label for="text">Text:</label><br><textarea cols="58" name="text" placeholder="Write something..." rows="15">.door-link { \r\n  border: 1px solid black;\r\n  background: tan;\r\n  padding: 0.5em;\r\n}\r\n\r\n.door-link:hover {\r\n  border: 1px solid orange;\r\n  background: black;\r\n  color: tan;\r\n  padding: 0.75em;\r\n}\r\n/*css:/12345678/12395681*/</textarea><br><input name="fake_out_caching" type="hidden" value="652573242"><input type="submit" value="post"></form></body></html>'
p246
sg34
g4
sbs(I16843009
I51
tp247
g0
(g10
g2
Ntp248
Rp249
(dp250
g14
(dp251
g86
S'[-- dip] cons [swap] infra [0 >] swap while pop\r\n\r\nDo something n times.\r\n\r\ncss:/12345678/01010101'
p252
sg88
S'times'
p253
ssg32
S'<html><head><title>times</title><style>body { background:#cfc; }</style></head><body><h1><a href="/01010101/00000033">times</a></h1><div><p>[-- dip] cons [swap] infra [0 &gt;] swap while pop</p><p></p><p>Do something n times.</p><p></p><p></p></div><hr><form action="/01010101/00000033" method="POST"><h4>Edit</h4><label for="title">Title:</label><input name="title" placeholder="No Title" size="44" type="text" value="times"><br><label for="text">Text:</label><br><textarea cols="58" name="text" placeholder="Write something..." rows="15">[-- dip] cons [swap] infra [0 &gt;] swap while pop\r\n\r\nDo something n times.\r\n\r\ncss:/12345678/01010101</textarea><br><input name="fake_out_caching" type="hidden" value="471531137"><input type="submit" value="post"></form></body></html>'
p254
sg34
g4
sbs(I305419896
I305747586
tp255
g0
(g10
g2
Ntp256
Rp257
(dp258
g14
(dp259
S'text'
p260
S'lof'
p261
sS'title'
p262
S'A CSS class'
p263
ssg32
S'<html><head><title>A CSS class</title></head><body><h1><a href="/12345678/12395682">A CSS class</a></h1><div>lof</div><hr><form action="/12345678/12395682" method="POST"><h4>Edit</h4><label for="title">Title:</label><input name="title" placeholder="You can use the editor below to write some text..." size="44" type="text" value="A CSS class"><br><label for="text">Text:</label><br><textarea cols="58" name="text" placeholder="Write something..." rows="15">lof</textarea><br><input name="fake_out_caching" type="hidden" value="4228415860"><input type="submit" value="post"></form></body></html>'
p264
sg34
g4
sbs(I1511424
I4
tp265
g0
(g10
g2
Ntp266
Rp267
(dp268
g14
(dp269
S'text'
p270
S'cssclass:/12345678/12395682\r\ntext:/00171000/00000001'
p271
sS'title'
p272
S'Bananas with class!'
p273
ssg32
S'<html><head><title>Bananas with class!</title></head><body><h1><a href="/00171000/00000004">Bananas with class!</a></h1><div class="a-css-class">\r\nBananas are delicious.\r\n</div><hr><form action="/00171000/00000004" method="POST"><h4>Edit</h4><label for="title">Title:</label><input name="title" placeholder="You can use the editor below to write some text..." size="44" type="text" value="Bananas with class!"><br><label for="text">Text:</label><br><textarea cols="58" name="text" placeholder="Write something..." rows="15">cssclass:/12345678/12395682\r\ntext:/00171000/00000001</textarea><br><input name="fake_out_caching" type="hidden" value="3929778357"><input type="submit" value="post"></form></body></html>'
p274
sg34
g4
sbs(I0
I3405691582
tp275
g0
(g10
g2
Ntp276
Rp277
(dp278
g14
(dp279
S'text'
p280
S'very young red dragon grab helpless goblin as guide through the human world'
p281
sS'title'
p282
S'warrior dark elf'
p283
ssg32
S'<html><head><title>warrior dark elf</title></head><body><h1><a href="/00000000/cafebabe">warrior dark elf</a></h1><div><p>very young red dragon grab helpless goblin as guide through the human world</p></div><hr><form action="/00000000/cafebabe" method="POST"><h4>Edit</h4><label for="title">Title:</label><input name="title" placeholder="No Title" size="44" type="text" value="warrior dark elf"><br><label for="text">Text:</label><br><textarea cols="58" name="text" placeholder="Write something..." rows="15">very young red dragon grab helpless goblin as guide through the human world</textarea><br><input name="fake_out_caching" type="hidden" value="1433741694"><input type="submit" value="post"></form></body></html>'
p284
sg34
g4
sbs(I305419896
I305747584
tp285
g0
(g10
g2
Ntp286
Rp287
(dp288
g14
(dp289
g66
S''
p290
sg68
g290
ssg32
S'<html><head><title>/12345678/12395680</title></head><body><h1><a href="/12345678/12395680">No Title</a></h1><div><p class="default-text">You can use the editor below to write some text...</p></div><hr><form action="/12345678/12395680" method="POST"><h4>Edit</h4><label for="title">Title:</label><input name="title" placeholder="No Title" size="44" type="text" value=""><br><label for="text">Text:</label><br><textarea cols="58" name="text" placeholder="Write something..." rows="15"></textarea><br><input name="fake_out_caching" type="hidden" value="681643869"><input type="submit" value="post"></form></body></html>'
p291
sg34
g4
sbs(I0
I3
tp292
g0
(g10
g2
Ntp293
Rp294
(dp295
g14
(dp296
S'text'
p297
S'index:/00000000/cafebabe'
p298
sS'title'
p299
S'Is This An Index?'
p300
ssg32
S'<html><head><title>Is This An Index?</title></head><body><h1><a href="/00000000/00000003">Is This An Index?</a></h1><div><ol><li><a href="/00000000/00000000">Eumirion</a><ol><li><a href="/00000000/00000003">Is This An Index?</a></li><li><a href="/00000000/00000019">Excelsior</a></li><li><a href="/00000000/00000020">This Is The Outer Limits</a></li><li><a href="/00000000/00000021">Thronestar</a></li><li><a href="/00000000/00080020">Control Panel Testing</a></li><li><a href="/00000000/cafebabe">warrior dark elf</a></li></ol></li><li><a href="/00000777/00000000">Laws of Form</a><ol><li><a href="/00000777/0000000a">A</a></li><li><a href="/00000777/0000000b">B</a></li><li><a href="/00000777/00001111">ab</a></li><li><a href="/00000777/00001112">((a)(b))</a></li></ol></li><li><a href="/00171000/00000000">Try the new stuff</a><ol><li><a href="/00171000/00000001">Bananas</a></li><li><a href="/00171000/00000002">A List</a></li><li><a href="/00171000/00000003">Some other junk.</a></li><li><a href="/00171000/00000004">Bananas with class!</a></li><li><a href="/00171000/00000005">See Animation in Action</a></li></ol></li><li><a href="/01010101/00000000">Joy Code</a><ol><li><a href="/01010101/00000001">01</a></li><li><a href="/01010101/00000033">times</a></li><li><a href="/01010101/00000035">clear</a></li><li><a href="/01010101/00000037">first</a></li><li><a href="/01010101/00000038">enstacken</a></li><li><a href="/01010101/00000039">4d6</a></li><li><a href="/01010101/00000040">Roll four six-siders.</a></li><li><a href="/01010101/00000041">Enstacken Pulse Title</a></li></ol></li><li><a href="/01010102/00000000">jump to /01010102/00000000</a><ol><li><a href="/01010102/00000002">Template for commands.</a></li></ol></li><li><a href="/12344678/00000000">And then...</a><ol></ol></li><li><a href="/12345678/00000000">Csses</a><ol><li><a href="/12345678/00000023">command form CSS</a></li><li><a href="/12345678/01010101">Joy Css</a></li><li><a href="/12345678/12345678">Brobignagian</a></li><li><a href="/12345678/12395678">Some CSS</a></li><li><a href="/12345678/12395679">Door Css</a></li><li><a href="/12345678/12395680">jump to /12345678/12395680</a></li><li><a href="/12345678/12395681">CSS CSS</a></li><li><a href="/12345678/12395682">A CSS class</a></li><li><a href="/12345678/12395683">aking text slide across the browser window</a></li><li><a href="/12345678/12395684">Title slow pulse</a></li><li><a href="/12345678/12395685">Lof</a></li></ol></li><li><a href="/72300000/00000000">Whoops</a><ol></ol></li><li><a href="/77700000/00000000">Parametric Creation Of Content, Including Planets</a><ol></ol></li><li><a href="/88880000/00000000">Spaceships</a><ol><li><a href="/88880000/00000001">The TARDIS</a></li></ol></li></ol></div><hr><form action="/00000000/00000003" method="POST"><h4>Edit</h4><label for="title">Title:</label><input name="title" placeholder="You can use the editor below to write some text..." size="44" type="text" value="Is This An Index?"><br><label for="text">Text:</label><br><textarea cols="58" name="text" placeholder="Write something..." rows="15">index:/00000000/cafebabe</textarea><br><input name="fake_out_caching" type="hidden" value="2121153435"><input type="submit" value="post"></form></body></html>'
p301
sg34
g4
sbs(I16843009
I1
tp302
g0
(g10
g2
Ntp303
Rp304
(dp305
g14
(dp306
S'text'
p307
S'0 1  ;text:/01010102/00000002'
p308
sS'title'
p309
S'01'
p310
sS'joy'
p311
(I0
(I1
(ttp312
tp313
ssg32
S'<html><head><title>01</title><style>body { background:#cfc; }</style></head><body><h1><a href="/01010101/00000001">01</a></h1><div><p>0 1  ;<p><form action="/01010101/00000001" class="command" method="POST"><input name="fake_out_caching" type="hidden" value="41567031"><input name="command" type="hidden" value="/01010101/00000035"><input type="submit" value="clear"></form></p></p></div><hr><form action="/01010101/00000001" method="POST"><h4>Edit</h4><label for="title">Title:</label><input name="title" placeholder="You can use the editor below to write some text..." size="44" type="text" value="01"><br><label for="text">Text:</label><br><textarea cols="58" name="text" placeholder="Write something..." rows="15">0 1  ;text:/01010102/00000002</textarea><br><input name="fake_out_caching" type="hidden" value="2537374234"><input type="submit" value="post"></form></body></html>'
p314
sg34
g4
sbs(I16843009
I65
tp315
g0
(g10
g2
Ntp316
Rp317
(dp318
g14
(dp319
g40
S'"css:/12345678/12395684"\r\n;\r\njoy:/01010101/00000041\r\ncommand:/01010101/00000035'
p320
sS'joy'
p321
(S'css:/12345678/12395684'
p322
(ttp323
sg42
S'Enstacken Pulse Title'
p324
ssg32
S'<html><head><title>Enstacken Pulse Title</title><style>h1 {\r\n  animation-duration: 3s;\r\n  animation-name: slidein;\r\n  animation-iteration-count: infinite;\r\n}\r\n\r\n@keyframes slidein {\r\n  50% {\r\n    font-size: 300%;\r\n  }\r\n}</style></head><body><h1><a href="/01010101/00000041">Enstacken Pulse Title</a></h1><div>""\r\n;\r\n\r\n<form action="/01010101/00000041" class="command" method="POST"><input name="fake_out_caching" type="hidden" value="2652754812"><input name="command" type="hidden" value="/01010101/00000035"><input type="submit" value="clear"></form></div><hr><form action="/01010101/00000041" method="POST"><h4>Edit</h4><label for="title">Title:</label><input name="title" placeholder="You can use the editor below to write some text..." size="44" type="text" value="Enstacken Pulse Title"><br><label for="text">Text:</label><br><textarea cols="58" name="text" placeholder="Write something..." rows="15">"css:/12345678/12395684"\r\n;\r\njoy:/01010101/00000041\r\ncommand:/01010101/00000035</textarea><br><input name="fake_out_caching" type="hidden" value="315762847"><input type="submit" value="post"></form></body></html>'
p325
sg34
g4
sbs(I0
I33
tp326
g0
(g10
g2
Ntp327
Rp328
(dp329
g14
(dp330
S'text'
p331
S'The massive black hole at the center of each galaxy is called the "Thronestar"..  Time slows down near the event horizon of such a titanic mass and galactic civilizations seek proximity to it as a means of prolonging existance.\r\n\r\ntext:/00000000/00080020\r\ncss:/12345678/12395678\r\nstack:/00000000/00000021\r\n/00000000/00080020'
p332
sS'title'
p333
S'Thronestar'
p334
sS'stack'
p335
(tsS'joy'
p336
((I1
(I0
(ttp337
tp338
(ttp339
ssg32
S'<html><head><title>Thronestar</title><style>form.command { display: inline; padding: 0.5em; }</style><style>@import url(http://fonts.googleapis.com/css?family=EB+Garamond);\r\n\r\nbody {\r\n  background: black;\r\n  color: #00ff00;\r\n  font-family: \'EB Garamond\', serif;\r\n  font-size: 133%;\r\n}\r\n\r\ndiv {\r\n  border: 0.1em solid;\r\n  border-radius: 3em;\r\n  padding: 1.25em 2.25em 1.25em 2.25em;\r\n}\r\n\r\n/*css:/12345678/12395681*/</style></head><body><h1><a href="/00000000/00000021">Thronestar</a></h1><div><p>The massive black hole at the center of each galaxy is called the "Thronestar"..  Time slows down near the event horizon of such a titanic mass and galactic civilizations seek proximity to it as a means of prolonging existance.</p><p><a class="door-link" href="/00000000/00000000">[Eumirion]</a>\r\n<form action="/00000000/00000021" class="command" method="POST"><input name="fake_out_caching" type="hidden" value="3332823626"><input name="command" type="hidden" value="/01010101/00000001"><input type="submit" value="01"></form><form action="/00000000/00000021" class="command" method="POST"><input name="fake_out_caching" type="hidden" value="2522899570"><input name="command" type="hidden" value="/01010101/00000035"><input type="submit" value="clear"></form><form action="/00000000/00000021" class="command" method="POST"><input name="fake_out_caching" type="hidden" value="4143636671"><input name="command" type="hidden" value="/01010101/00000037"><input type="submit" value="first"></form><form action="/00000000/00000021" class="command" method="POST"><input name="fake_out_caching" type="hidden" value="1079105139"><input name="command" type="hidden" value="/01010101/00000038"><input type="submit" value="enstacken"></form><form action="/00000000/00000021" class="command" method="POST"><input name="fake_out_caching" type="hidden" value="852230438"><input name="command" type="hidden" value="/01010101/00000039"><input type="submit" value="4d6"></form><form action="/00000000/00000021" class="command" method="POST"><input name="fake_out_caching" type="hidden" value="966116327"><input name="command" type="hidden" value="/01010101/00000040"><input type="submit" value="Roll four six-siders."></form>\r\n<ol></ol>\r\n\r\n\r\n\r\n<ol><li>[1 0]</li></ol>\r\n<a href="/00000000/00080020">Control Panel Testing</a></p></div><hr><form action="/00000000/00000021" method="POST"><h4>Edit</h4><label for="title">Title:</label><input name="title" placeholder="You can use the editor below to write some text..." size="44" type="text" value="Thronestar"><br><label for="text">Text:</label><br><textarea cols="58" name="text" placeholder="Write something..." rows="15">The massive black hole at the center of each galaxy is called the "Thronestar"..  Time slows down near the event horizon of such a titanic mass and galactic civilizations seek proximity to it as a means of prolonging existance.\r\n\r\ntext:/00000000/00080020\r\ncss:/12345678/12395678\r\nstack:/00000000/00000021\r\n/00000000/00080020</textarea><br><input name="fake_out_caching" type="hidden" value="170344253"><input type="submit" value="post"></form></body></html>'
p340
sg34
g4
sbs(I1511424
I1
tp341
g0
(g10
g2
Ntp342
Rp343
(dp344
g14
(dp345
g133
S'Bananas are delicious.\r\n'
p346
sg135
S'Bananas'
p347
ssg32
S'<html><head><title>Bananas</title></head><body><h1><a href="/00171000/00000001">Bananas</a></h1><div>Bananas are delicious.\r\n</div><hr><form action="/00171000/00000001" method="POST"><h4>Edit</h4><label for="title">Title:</label><input name="title" placeholder="You can use the editor below to write some text..." size="44" type="text" value="Bananas"><br><label for="text">Text:</label><br><textarea cols="58" name="text" placeholder="Write something..." rows="15">Bananas are delicious.\r\n</textarea><br><input name="fake_out_caching" type="hidden" value="815412886"><input type="submit" value="post"></form></body></html>'
p348
sg34
g4
sbs(I2290614272
I0
tp349
g0
(g10
g2
Ntp350
Rp351
(dp352
g14
(dp353
S'text'
p354
S'index:/88880000/00000000'
p355
sS'title'
p356
S'Spaceships'
p357
ssg32
S'<html><head><title>Spaceships</title></head><body><h1><a href="/88880000/00000000">Spaceships</a></h1><div><p><ol><li><a href="/88880000/00000000">Spaceships</a><ol><li><a href="/88880000/00000001">The TARDIS</a></li></ol></li></ol></p></div><hr><form action="/88880000/00000000" method="POST"><h4>Edit</h4><label for="title">Title:</label><input name="title" placeholder="No Title" size="44" type="text" value="Spaceships"><br><label for="text">Text:</label><br><textarea cols="88" name="text" placeholder="Write something..." rows="5">index:/88880000/00000000</textarea><br><input name="fake_out_caching" type="hidden" value="2859869683"><input type="submit" value="post"></form></body></html>'
p358
sg34
g4
sbs(I0
I25
tp359
g0
(g10
g2
Ntp360
Rp361
(dp362
g14
(dp363
g232
S'A spaceship.\r\n\r\nDocked in orbit around /00000000/00000000.'
p364
sg234
S'Excelsior'
p365
ssg32
S'<html><head><title>Excelsior</title></head><body><h1><a href="/00000000/00000019">Excelsior</a></h1><div><p>A spaceship.</p><p></p><p>Docked in orbit around <a href="/00000000/00000000">Eumirion</a>.</p></div><hr><form action="/00000000/00000019" method="POST"><h4>Edit</h4><label for="title">Title:</label><input name="title" placeholder="No Title" size="44" type="text" value="Excelsior"><br><label for="text">Text:</label><br><textarea cols="88" name="text" placeholder="Write something..." rows="5">A spaceship.\r\n\r\nDocked in orbit around /00000000/00000000.</textarea><br><input name="fake_out_caching" type="hidden" value="234453159"><input type="submit" value="post"></form></body></html>'
p366
sg34
g4
sbs(I16843010
I2
tp367
g0
(g10
g2
Ntp368
Rp369
(dp370
g14
(dp371
S'text'
p372
S'command:/01010101/00000035css:/12345678/01010101'
p373
sS'title'
p374
S'Template for commands.'
p375
ssg32
S'<html><head><title>Template for commands.</title><style>body { background:#cfc; }</style></head><body><h1><a href="/01010102/00000002">Template for commands.</a></h1><div><p><form action="/01010102/00000002" class="command" method="POST"><input name="fake_out_caching" type="hidden" value="3629048052"><input name="command" type="hidden" value="/01010101/00000035"><input type="submit" value="clear"></form></p></div><hr><form action="/01010102/00000002" method="POST"><h4>Edit</h4><label for="title">Title:</label><input name="title" placeholder="You can use the editor below to write some text..." size="44" type="text" value="Template for commands."><br><label for="text">Text:</label><br><textarea cols="58" name="text" placeholder="Write something..." rows="15">command:/01010101/00000035css:/12345678/01010101</textarea><br><input name="fake_out_caching" type="hidden" value="1836385450"><input type="submit" value="post"></form></body></html>'
p376
sg34
g4
sbs(I1511424
I3
tp377
g0
(g10
g2
Ntp378
Rp379
(dp380
g14
(dp381
S'text'
p382
S'p:/00171000/00000001\r\ndiv:/00171000/00000001\r\ndiv:/00171000/00000004\r\ntext:/00171000/00000001'
p383
sS'title'
p384
S'Some other junk.'
p385
ssg32
S'<html><head><title>Some other junk.</title></head><body><h1><a href="/00171000/00000003">Some other junk.</a></h1><div><p>Bananas are delicious.\r\n</p>\r\n<div>Bananas are delicious.\r\n</div>\r\n<div class="a-css-class">\r\nBananas are delicious.\r\n</div>\r\nBananas are delicious.\r\n</div><hr><form action="/00171000/00000003" method="POST"><h4>Edit</h4><label for="title">Title:</label><input name="title" placeholder="You can use the editor below to write some text..." size="44" type="text" value="Some other junk."><br><label for="text">Text:</label><br><textarea cols="58" name="text" placeholder="Write something..." rows="15">p:/00171000/00000001\r\ndiv:/00171000/00000001\r\ndiv:/00171000/00000004\r\ntext:/00171000/00000001</textarea><br><input name="fake_out_caching" type="hidden" value="585565672"><input type="submit" value="post"></form></body></html>'
p386
sg34
g4
sbs(I305419896
I305747587
tp387
g0
(g10
g2
Ntp388
Rp389
(dp390
g14
(dp391
g40
S'h1 {\r\n  animation-duration: 3s;\r\n  animation-name: slidein;\r\n  animation-iteration-count: infinite;\r\n}\r\n\r\n@keyframes slidein {\r\n  from {\r\n    margin-left: -100%;\r\n  }\r\n\r\n  75% {\r\n    font-size: 300%;\r\n    margin-left: 25%;\r\n  }\r\n\r\n  to {\r\n    margin-left: -100%;\r\n  }\r\n}'
p392
sg42
S'aking text slide across the browser window'
p393
ssg32
S'<html><head><title>aking text slide across the browser window</title></head><body><h1><a href="/12345678/12395683">aking text slide across the browser window</a></h1><div><p>h1 {\r\n  animation-duration: 3s;\r\n  animation-name: slidein;\r\n  animation-iteration-count: infinite;\r\n}</p><p>@keyframes slidein {\r\n  from {\r\n    margin-left: -100%;\r\n  }</p><p>  75% {\r\n    font-size: 300%;\r\n    margin-left: 25%;\r\n  }</p><p>  to {\r\n    margin-left: -100%;\r\n  }\r\n}</p></div><hr><form action="/12345678/12395683" method="POST"><h4>Edit</h4><label for="title">Title:</label><input name="title" placeholder="You can use the editor below to write some text..." size="44" type="text" value="aking text slide across the browser window"><br><label for="text">Text:</label><br><textarea cols="58" name="text" placeholder="Write something..." rows="15">h1 {\r\n  animation-duration: 3s;\r\n  animation-name: slidein;\r\n  animation-iteration-count: infinite;\r\n}\r\n\r\n@keyframes slidein {\r\n  from {\r\n    margin-left: -100%;\r\n  }\r\n\r\n  75% {\r\n    font-size: 300%;\r\n    margin-left: 25%;\r\n  }\r\n\r\n  to {\r\n    margin-left: -100%;\r\n  }\r\n}</textarea><br><input name="fake_out_caching" type="hidden" value="472897610"><input type="submit" value="post"></form></body></html>'
p394
sg34
g4
sbs(I0
I32
tp395
g0
(g10
g2
Ntp396
Rp397
(dp398
g14
(dp399
g232
S"Not really, that's a TV show.\r\njump to /12345678/12345678\r\nbasil\r\ntext:/12345678/12345678\r\n"
p400
sg234
S'This Is The Outer Limits'
p401
ssg32
S'<html><head><title>This Is The Outer Limits</title><style>@import url(http://fonts.googleapis.com/css?family=EB+Garamond);\r\n\r\nbody {\r\n  background: black;\r\n  color: #00ff00;\r\n  font-family: \'EB Garamond\', serif;\r\n  font-size: 133%;\r\n}\r\n\r\ndiv {\r\n  border: 0.1em solid;\r\n  border-radius: 3em;\r\n  padding: 1.25em 2.25em 1.25em 2.25em;\r\n}\r\n\r\n/*css:/12345678/12395681*/</style><style>.door-link { \r\n  border: 1px solid black;\r\n  background: tan;\r\n  padding: 0.5em;\r\n}\r\n\r\n.door-link:hover {\r\n  border: 1px solid orange;\r\n  background: black;\r\n  color: tan;\r\n  padding: 0.75em;\r\n}\r\n/*css:/12345678/12395681*/</style></head><body><h1><a href="/00000000/00000020">This Is The Outer Limits</a></h1><div>Not really, that\'s a TV show.\r\njump to <a href="/12345678/12345678">Brobignagian</a>\r\nbasil\r\n<p>Very large and slightly awkward.\r\n</p><p>\r\n<a href="/00000000/00000000">Eumirion</a></p><p><a class="door-link" href="/00000000/00000020">[This Is The Outer Limits]</a></p><p></p>\r\n</div><hr><form action="/00000000/00000020" method="POST"><h4>Edit</h4><label for="title">Title:</label><input name="title" placeholder="You can use the editor below to write some text..." size="44" type="text" value="This Is The Outer Limits"><br><label for="text">Text:</label><br><textarea cols="58" name="text" placeholder="Write something..." rows="15">Not really, that\'s a TV show.\r\njump to /12345678/12345678\r\nbasil\r\ntext:/12345678/12345678\r\n</textarea><br><input name="fake_out_caching" type="hidden" value="1114690666"><input type="submit" value="post"></form></body></html>'
p402
sg34
g4
sbs(I1511424
I5
tp403
g0
(g10
g2
Ntp404
Rp405
(dp406
g14
(dp407
g40
S'If you render the stack into the page and create a command that puts a css: action onto the stack, then that CSS will take effect.  Try it: command:/01010101/00000041\r\n\r\nClick to stop the animation by removing the css: action from the page stack. command:/01010101/00000035\r\nstackinto:/00171000/00000005\r\n'
p408
sg321
(g322
(ttp409
sg42
S'See Animation in Action'
p410
ssg32
S'<html><head><title>See Animation in Action</title><style>h1 {\r\n  animation-duration: 3s;\r\n  animation-name: slidein;\r\n  animation-iteration-count: infinite;\r\n}\r\n\r\n@keyframes slidein {\r\n  50% {\r\n    font-size: 300%;\r\n  }\r\n}</style></head><body><h1><a href="/00171000/00000005">See Animation in Action</a></h1><div><p>If you render the stack into the page and create a command that puts a css: action onto the stack, then that CSS will take effect.  Try it: <form action="/00171000/00000005" class="command" method="POST"><input name="fake_out_caching" type="hidden" value="3961816016"><input name="command" type="hidden" value="/01010101/00000041"><input type="submit" value="Enstacken Pulse Title"></form></p><p>Click to stop the animation by removing the css: action from the page stack. <form action="/00171000/00000005" class="command" method="POST"><input name="fake_out_caching" type="hidden" value="149209742"><input name="command" type="hidden" value="/01010101/00000035"><input type="submit" value="clear"></form>\r\n\r\n</p></div><hr><form action="/00171000/00000005" method="POST"><h4>Edit</h4><label for="title">Title:</label><input name="title" placeholder="You can use the editor below to write some text..." size="44" type="text" value="See Animation in Action"><br><label for="text">Text:</label><br><textarea cols="58" name="text" placeholder="Write something..." rows="15">If you render the stack into the page and create a command that puts a css: action onto the stack, then that CSS will take effect.  Try it: command:/01010101/00000041\r\n\r\nClick to stop the animation by removing the css: action from the page stack. command:/01010101/00000035\r\nstackinto:/00171000/00000005\r\n</textarea><br><input name="fake_out_caching" type="hidden" value="4181319550"><input type="submit" value="post"></form></body></html>'
p411
sg34
g4
sbs(I2003828736
I0
tp412
g0
(g10
g2
Ntp413
Rp414
(dp415
g14
(dp416
S'text'
p417
S'I want to provide tools that can be used in-server to parametrically create things like star systems, species, artifacts and phenomenon, etc... using e.g. 2d6 5d12 1d20 &c. D&D-style "dice" and charts.  Maybe pull content from fan wikis of sci-fi shows and books etc...\r\n\r\ncommand:/01010101/00000040\r\ncommand:/01010101/00000035\r\n\r\ncss:/12345678/12395678css:/12345678/00000023\r\nParametric dice are easy to make, along with tables and ways to sample from the tables to build new content and load it into the server.\r\nstack:/77700000/00000000'
p418
sS'title'
p419
S'Parametric Creation Of Content, Including Planets'
p420
sS'joy'
p421
((I4
(I3
(I6
(I2
(ttp422
tp423
tp424
tp425
(ttp426
ssg32
S'<html><head><title>Parametric Creation Of Content, Including Planets</title><style>@import url(http://fonts.googleapis.com/css?family=EB+Garamond);\r\n\r\nbody {\r\n  background: black;\r\n  color: #00ff00;\r\n  font-family: \'EB Garamond\', serif;\r\n  font-size: 133%;\r\n}\r\n\r\ndiv {\r\n  border: 0.1em solid;\r\n  border-radius: 3em;\r\n  padding: 1.25em 2.25em 1.25em 2.25em;\r\n}\r\n\r\n/*css:/12345678/12395681*/</style><style>form.command { display: inline; padding: 0.5em; }</style></head><body><h1><a href="/77700000/00000000">Parametric Creation Of Content, Including Planets</a></h1><div><p>I want to provide tools that can be used in-server to parametrically create things like star systems, species, artifacts and phenomenon, etc... using e.g. 2d6 5d12 1d20 &amp;c. D&amp;D-style "dice" and charts.  Maybe pull content from fan wikis of sci-fi shows and books etc...</p><p><form action="/77700000/00000000" class="command" method="POST"><input name="fake_out_caching" type="hidden" value="2561306364"><input name="command" type="hidden" value="/01010101/00000040"><input type="submit" value="Roll four six-siders."></form>\r\n<form action="/77700000/00000000" class="command" method="POST"><input name="fake_out_caching" type="hidden" value="2563031475"><input name="command" type="hidden" value="/01010101/00000035"><input type="submit" value="clear"></form></p><p>\r\nParametric dice are easy to make, along with tables and ways to sample from the tables to build new content and load it into the server.\r\n<ol><li>[4 3 6 2]</li></ol></p></div><hr><form action="/77700000/00000000" method="POST"><h4>Edit</h4><label for="title">Title:</label><input name="title" placeholder="You can use the editor below to write some text..." size="44" type="text" value="Parametric Creation Of Content, Including Planets"><br><label for="text">Text:</label><br><textarea cols="58" name="text" placeholder="Write something..." rows="15">I want to provide tools that can be used in-server to parametrically create things like star systems, species, artifacts and phenomenon, etc... using e.g. 2d6 5d12 1d20 &amp;c. D&amp;D-style "dice" and charts.  Maybe pull content from fan wikis of sci-fi shows and books etc...\r\n\r\ncommand:/01010101/00000040\r\ncommand:/01010101/00000035\r\n\r\ncss:/12345678/12395678css:/12345678/00000023\r\nParametric dice are easy to make, along with tables and ways to sample from the tables to build new content and load it into the server.\r\nstack:/77700000/00000000</textarea><br><input name="fake_out_caching" type="hidden" value="2569818117"><input type="submit" value="post"></form></body></html>'
p427
sg34
g4
sbs(I16843009
I0
tp428
g0
(g10
g2
Ntp429
Rp430
(dp431
g14
(dp432
g86
S'a b [c d] [e f] while\r\ncss:/12345678/01010101'
p433
sg88
S'Joy Code'
p434
ssg32
S'<html><head><title>Joy Code</title><style>body { background:#cfc; }</style></head><body><h1><a href="/01010101/00000000">Joy Code</a></h1><div><p>a b [c d] [e f] while</p><p></p></div><hr><form action="/01010101/00000000" method="POST"><h4>Edit</h4><label for="title">Title:</label><input name="title" placeholder="No Title" size="44" type="text" value="Joy Code"><br><label for="text">Text:</label><br><textarea cols="88" name="text" placeholder="Write something..." rows="5">a b [c d] [e f] while\r\ncss:/12345678/01010101</textarea><br><input name="fake_out_caching" type="hidden" value="1219654015"><input type="submit" value="post"></form></body></html>'
p435
sg34
g4
sbs(I1911
I4370
tp436
g0
(g10
g2
Ntp437
Rp438
(dp439
g14
(dp440
g40
S'div:/00000777/00001111\r\n\r\ncss:/12345678/12395685\r\n'
p441
sg42
S'((a)(b))'
p442
ssg32
S'<html><head><title>((a)(b))</title><style>.lof {\r\n  border-top: 2px solid black;\r\n  border-right: 2px solid black;\r\n  padding: 0.25em;\r\n  margin: 0.25em;\r\n  float: left;\r\n}\r\n/*\r\ncss:/12345678/12395681\r\ncss:/12345678/12395685\r\ncssclass:/12345678/12395682\r\n*/</style></head><body><h1><a href="/00000777/00001112">((a)(b))</a></h1><div><p><div class="lof"><div class="lof">A\r\n\r\n</div>\r\n<div class="lof">B\r\n\r\n</div>\r\n\r\n</div></p><p>\r\n</p></div><hr><form action="/00000777/00001112" method="POST"><h4>Edit</h4><label for="title">Title:</label><input name="title" placeholder="You can use the editor below to write some text..." size="44" type="text" value="((a)(b))"><br><label for="text">Text:</label><br><textarea cols="58" name="text" placeholder="Write something..." rows="15">div:/00000777/00001111\r\n\r\ncss:/12345678/12395685\r\n</textarea><br><input name="fake_out_caching" type="hidden" value="3721182688"><input type="submit" value="post"></form></body></html>'
p443
sg34
g4
sbs(I2290614272
I1
tp444
g0
(g10
g2
Ntp445
Rp446
(dp447
g14
(dp448
g354
S'Technically not a spaceship.'
p449
sg356
S'The TARDIS'
p450
ssg32
S'<html><head><title>The Tardis</title></head><body><h1><a href="/88880000/00000001">The Tardis</a></h1><div><p>Technically not a spaceship.</p></div><hr><form action="/88880000/00000001" method="POST"><h4>Edit</h4><label for="title">Title:</label><input name="title" placeholder="No Title" size="44" type="text" value="The Tardis"><br><label for="text">Text:</label><br><textarea cols="88" name="text" placeholder="Write something..." rows="5">Technically not a spaceship.</textarea><br><input name="fake_out_caching" type="hidden" value="60472379"><input type="submit" value="post"></form></body></html>'
p451
sg34
g4
sbs(I16843009
I53
tp452
g0
(g10
g2
Ntp453
Rp454
(dp455
g14
(dp456
g280
S'clear ;joy:/01010101/00000035text:/01010102/00000002'
p457
sg282
S'clear'
p458
sg311
(g0
(g19
g2
Ntp459
Rp460
(dp461
g23
S'clear'
p462
sg25
g160
sb(ttp463
ssg32
S'<html><head><title>clear</title><style>body { background:#cfc; }</style></head><body><h1><a href="/01010101/00000035">clear</a></h1><div>clear ;<form action="/01010101/00000035" class="command" method="POST"><input name="fake_out_caching" type="hidden" value="3164265784"><input name="command" type="hidden" value="/01010101/00000035"><input type="submit" value="clear"></form></div><hr><form action="/01010101/00000035" method="POST"><h4>Edit</h4><label for="title">Title:</label><input name="title" placeholder="You can use the editor below to write some text..." size="44" type="text" value="clear"><br><label for="text">Text:</label><br><textarea cols="58" name="text" placeholder="Write something..." rows="15">clear ;joy:/01010101/00000035text:/01010102/00000002</textarea><br><input name="fake_out_caching" type="hidden" value="883333796"><input type="submit" value="post"></form></body></html>'
p464
sg34
g4
sbs(I305415800
I0
tp465
g0
(g10
g2
Ntp466
Rp467
(dp468
g14
(dp469
S'text'
p470
S'You add zee content!\r\nstackinto:/77700000/00000000\r\ncommand:/77700000/00000000\r\nstackinto:/12344678/00000000\r\ncommand:/01010101/00000035\r\n'
p471
sg321
((I1
(I2
(I4
(I5
(ttp472
tp473
tp474
tp475
((I1
(I4
(I4
(I1
(ttp476
tp477
tp478
tp479
((I5
(I4
(I6
(I1
(ttp480
tp481
tp482
tp483
((I4
(I2
(I6
(I1
(ttp484
tp485
tp486
tp487
((I2
(I3
(I6
(I5
(ttp488
tp489
tp490
tp491
((I5
(I5
(I2
(I5
(ttp492
tp493
tp494
tp495
(ttp496
tp497
tp498
tp499
tp500
tp501
sS'title'
p502
S'And then...'
p503
ssg32
S'<html><head><title>And then...</title></head><body><h1><a href="/12344678/00000000">And then...</a></h1><div>You add zee content!\r\n[4 3 6 2]\r\n<form action="/12344678/00000000" class="command" method="POST"><input name="fake_out_caching" type="hidden" value="1026204149"><input name="command" type="hidden" value="/77700000/00000000"><input type="submit" value="Parametric Creation Of Content, Including Planets"></form>\r\n[1 2 4 5][1 4 4 1][5 4 6 1][4 2 6 1][2 3 6 5][5 5 2 5]\r\n<form action="/12344678/00000000" class="command" method="POST"><input name="fake_out_caching" type="hidden" value="2938534671"><input name="command" type="hidden" value="/01010101/00000035"><input type="submit" value="clear"></form>\r\n</div><hr><form action="/12344678/00000000" method="POST"><h4>Edit</h4><label for="title">Title:</label><input name="title" placeholder="You can use the editor below to write some text..." size="44" type="text" value="And then..."><br><label for="text">Text:</label><br><textarea cols="58" name="text" placeholder="Write something..." rows="15">You add zee content!\r\nstackinto:/77700000/00000000\r\ncommand:/77700000/00000000\r\nstackinto:/12344678/00000000\r\ncommand:/01010101/00000035\r\n</textarea><br><input name="fake_out_caching" type="hidden" value="819894736"><input type="submit" value="post"></form></body></html>'
p504
sg34
g4
sbs(I305419896
I305747576
tp505
g0
(g10
g2
Ntp506
Rp507
(dp508
g14
(dp509
S'text'
p510
S"@import url(http://fonts.googleapis.com/css?family=EB+Garamond);\r\n\r\nbody {\r\n  background: black;\r\n  color: #00ff00;\r\n  font-family: 'EB Garamond', serif;\r\n  font-size: 133%;\r\n}\r\n\r\ndiv {\r\n  border: 0.1em solid;\r\n  border-radius: 3em;\r\n  padding: 1.25em 2.25em 1.25em 2.25em;\r\n}\r\n\r\n/*css:/12345678/12395681*/"
p511
sS'title'
p512
S'Some CSS'
p513
ssg32
S'<html><head><title>Some CSS</title><style>p {\r\n  margin: 0px;\r\n}\r\n \r\ndiv { background: #ffa; }\r\n\r\n/*css:/12345678/12395681*/</style></head><body><h1><a href="/12345678/12395678">Some CSS</a></h1><div><p>@import url(http://fonts.googleapis.com/css?family=EB+Garamond);</p><p></p><p>body {</p><p>  background: black;</p><p>  color: #00ff00;</p><p>  font-family: \'EB Garamond\', serif;</p><p>  font-size: 133%;</p><p>}</p><p></p><p>div {</p><p>  border: 0.1em solid;</p><p>  border-radius: 3em;</p><p>  padding: 1.25em 2.25em 1.25em 2.25em;</p><p>}</p><p></p><p>/**/</p></div><hr><form action="/12345678/12395678" method="POST"><h4>Edit</h4><label for="title">Title:</label><input name="title" placeholder="No Title" size="44" type="text" value="Some CSS"><br><label for="text">Text:</label><br><textarea cols="58" name="text" placeholder="Write something..." rows="15">@import url(http://fonts.googleapis.com/css?family=EB+Garamond);\r\n\r\nbody {\r\n  background: black;\r\n  color: #00ff00;\r\n  font-family: \'EB Garamond\', serif;\r\n  font-size: 133%;\r\n}\r\n\r\ndiv {\r\n  border: 0.1em solid;\r\n  border-radius: 3em;\r\n  padding: 1.25em 2.25em 1.25em 2.25em;\r\n}\r\n\r\n/*css:/12345678/12395681*/</textarea><br><input name="fake_out_caching" type="hidden" value="1459831538"><input type="submit" value="post"></form></body></html>'
p514
sg34
g4
sbs(I305419896
I305747588
tp515
g0
(g10
g2
Ntp516
Rp517
(dp518
g14
(dp519
g40
S'h1 {\r\n  animation-duration: 3s;\r\n  animation-name: slidein;\r\n  animation-iteration-count: infinite;\r\n}\r\n\r\n@keyframes slidein {\r\n  50% {\r\n    font-size: 300%;\r\n  }\r\n}'
p520
sg42
S'Title slow pulse'
p521
ssg32
S'<html><head><title>Title slow pulse</title></head><body><h1><a href="/12345678/12395684">Title slow pulse</a></h1><div><p>h1 {\r\n  animation-duration: 3s;\r\n  animation-name: slidein;\r\n  animation-iteration-count: infinite;\r\n}</p><p>@keyframes slidein {\r\n  50% {\r\n    font-size: 300%;\r\n  }\r\n}</p></div><hr><form action="/12345678/12395684" method="POST"><h4>Edit</h4><label for="title">Title:</label><input name="title" placeholder="You can use the editor below to write some text..." size="44" type="text" value="Title slow pulse"><br><label for="text">Text:</label><br><textarea cols="58" name="text" placeholder="Write something..." rows="15">h1 {\r\n  animation-duration: 3s;\r\n  animation-name: slidein;\r\n  animation-iteration-count: infinite;\r\n}\r\n\r\n@keyframes slidein {\r\n  50% {\r\n    font-size: 300%;\r\n  }\r\n}</textarea><br><input name="fake_out_caching" type="hidden" value="3427469998"><input type="submit" value="post"></form></body></html>'
p522
sg34
g4
sbs(I305419896
I35
tp523
g0
(g10
g2
Ntp524
Rp525
(dp526
g14
(dp527
g280
S'form.command { display: inline; padding: 0.5em; }'
p528
sg282
S'command form CSS'
p529
ssg32
S'<html><head><title>command form CSS</title></head><body><h1><a href="/12345678/00000023">command form CSS</a></h1><div><p>form.command { display: inline; padding: 0.5em; }</p></div><hr><form action="/12345678/00000023" method="POST"><h4>Edit</h4><label for="title">Title:</label><input name="title" placeholder="No Title" size="44" type="text" value="command form CSS"><br><label for="text">Text:</label><br><textarea cols="58" name="text" placeholder="Write something..." rows="15">form.command { display: inline; padding: 0.5em; }</textarea><br><input name="fake_out_caching" type="hidden" value="3229924183"><input type="submit" value="post"></form></body></html>'
p530
sg34
g4
sbs(I305419896
I305419896
tp531
g0
(g10
g2
Ntp532
Rp533
(dp534
g14
(dp535
S'text'
p536
S'Very large and slightly awkward.\r\ncss:/12345678/12395678\r\n\r\n\r\n/00000000/00000000\r\n\r\ndoor:/00000000/00000020\r\n\r\ncss:/12345678/12395679'
p537
sS'title'
p538
S'Brobignagian'
p539
ssg32
S'<html><head><title>Brobignagian</title><style>@import url(http://fonts.googleapis.com/css?family=EB+Garamond);\r\n\r\nbody {\r\n  background: black;\r\n  color: #00ff00;\r\n  font-family: \'EB Garamond\', serif;\r\n  font-size: 133%;\r\n}\r\n\r\ndiv {\r\n  border: 0.1em solid;\r\n  border-radius: 3em;\r\n  padding: 1.25em 2.25em 1.25em 2.25em;\r\n}\r\n\r\n/*css:/12345678/12395681*/</style><style>.door-link { \r\n  border: 1px solid black;\r\n  background: tan;\r\n  padding: 0.5em;\r\n}\r\n\r\n.door-link:hover {\r\n  border: 1px solid orange;\r\n  background: black;\r\n  color: tan;\r\n  padding: 0.75em;\r\n}\r\n/*css:/12345678/12395681*/</style></head><body><h1><a href="/12345678/12345678">Brobignagian</a></h1><div><p>Very large and slightly awkward.\r\n</p><p>\r\n<a href="/00000000/00000000">Eumirion</a></p><p><a class="door-link" href="/00000000/00000020">[This Is The Outer Limits]</a></p><p></p></div><hr><form action="/12345678/12345678" method="POST"><h4>Edit</h4><label for="title">Title:</label><input name="title" placeholder="You can use the editor below to write some text..." size="44" type="text" value="Brobignagian"><br><label for="text">Text:</label><br><textarea cols="58" name="text" placeholder="Write something..." rows="15">Very large and slightly awkward.\r\ncss:/12345678/12395678\r\n\r\n\r\n/00000000/00000000\r\n\r\ndoor:/00000000/00000020\r\n\r\ncss:/12345678/12395679</textarea><br><input name="fake_out_caching" type="hidden" value="3594715384"><input type="submit" value="post"></form></body></html>'
p540
sg34
g4
sbs(I1911
I0
tp541
g0
(g10
g2
Ntp542
Rp543
(dp544
g14
(dp545
g40
S'The Universal Language.\r\nindex:/00000777/00000000'
p546
sg42
S'Laws of Form'
p547
ssg32
S'<html><head><title>Laws of Form</title></head><body><h1><a href="/00000777/00000000">Laws of Form</a></h1><div>The Universal Language.\r\n<ol><li><a href="/00000777/00000000">Laws of Form</a><ol></ol></li></ol></div><hr><form action="/00000777/00000000" method="POST"><h4>Edit</h4><label for="title">Title:</label><input name="title" placeholder="You can use the editor below to write some text..." size="44" type="text" value="Laws of Form"><br><label for="text">Text:</label><br><textarea cols="58" name="text" placeholder="Write something..." rows="15">The Universal Language.\r\nindex:/00000777/00000000</textarea><br><input name="fake_out_caching" type="hidden" value="268287552"><input type="submit" value="post"></form></body></html>'
p548
sg34
g4
sbs(I305419896
I0
tp549
g0
(g10
g2
Ntp550
Rp551
(dp552
g14
(dp553
g354
S'index:/12345678/cafebabe'
p554
sg356
S'Csses'
p555
ssg32
S'<html><head><title>Csses</title></head><body><h1><a href="/12345678/00000000">Csses</a></h1><div><p><ol><li><a href="/12345678/00000000">Csses</a><ol><li><a href="/12345678/12345678">Brobignagian</a></li><li><a href="/12345678/12395678">Some Css</a></li><li><a href="/12345678/12395679">Door Css</a></li></ol></li></ol></p></div><hr><form action="/12345678/00000000" method="POST"><h4>Edit</h4><label for="title">Title:</label><input name="title" placeholder="No Title" size="44" type="text" value="Csses"><br><label for="text">Text:</label><br><textarea cols="88" name="text" placeholder="Write something..." rows="5">index:/12345678/cafebabe</textarea><br><input name="fake_out_caching" type="hidden" value="925644716"><input type="submit" value="post"></form></body></html>'
p556
sg34
g4
sbs(I1511424
I2
tp557
g0
(g10
g2
Ntp558
Rp559
(dp560
g14
(dp561
g382
S'li:/00171000/00000001\r\nli:/00171000/00000003\r\nli:/00171000/00000001'
p562
sg384
S'A List'
p563
ssg32
S'<html><head><title>A List</title></head><body><h1><a href="/00171000/00000002">A List</a></h1><div><li>Bananas are delicious.</li>\r\n<li><p>Bananas are delicious.</p>\r\n<div>Bananas are delicious.</div>\r\nBananas are delicious.</li>\r\n<li>Bananas are delicious.</li></div><hr><form action="/00171000/00000002" method="POST"><h4>Edit</h4><label for="title">Title:</label><input name="title" placeholder="You can use the editor below to write some text..." size="44" type="text" value="A List"><br><label for="text">Text:</label><br><textarea cols="58" name="text" placeholder="Write something..." rows="15">li:/00171000/00000001\r\nli:/00171000/00000003\r\nli:/00171000/00000001</textarea><br><input name="fake_out_caching" type="hidden" value="46902788"><input type="submit" value="post"></form></body></html>'
p564
sg34
g4
sbssS'pather'
p565
ceumi.server
pather
p566
sS'page_renderer'
p567
ceumi.page
Page
p568
sS'modified'
p569
I00
sb.